
D:/M/BLE_Mesh_SensorTemperature1_mainapp/Debug/BLE_Mesh_SensorTemperature1_mainapp.elf:     file format elf32-littlearm


Disassembly of section .app_xip_area_ds2:

0053e000 <ds2_xip_begin>:
  53e000:	4d435242 	.word	0x4d435242
  53e004:	44676663 	.word	0x44676663
  53e008:	00000000 	.word	0x00000000
  53e00c:	0000000a 	.word	0x0000000a
  53e010:	51040106 	.word	0x51040106
  53e014:	fe0053e1 	.word	0xfe0053e1
  53e018:	0000      	.short	0x0000
  53e01a:	5943      	.short	0x5943
  53e01c:	325f5442 	.word	0x325f5442
  53e020:	43003331 	.word	0x43003331
  53e024:	5f544259 	.word	0x5f544259
  53e028:	30333132 	.word	0x30333132
  53e02c:	4d5f3334 	.word	0x4d5f3334
  53e030:	00485345 	.word	0x00485345
  53e034:	21212121 	.word	0x21212121
  53e038:	69772021 	.word	0x69772021
  53e03c:	5f646563 	.word	0x5f646563
  53e040:	6d726966 	.word	0x6d726966
  53e044:	65726177 	.word	0x65726177
  53e048:	6470755f 	.word	0x6470755f
  53e04c:	5f657461 	.word	0x5f657461
  53e050:	79706f63 	.word	0x79706f63
  53e054:	6c66735f 	.word	0x6c66735f
  53e058:	0a687361 	.word	0x0a687361
  53e05c:	21212100 	.word	0x21212100
  53e060:	72202121 	.word	0x72202121
  53e064:	20646165 	.word	0x20646165
  53e068:	616c6665 	.word	0x616c6665
  53e06c:	000a6873 	.word	0x000a6873
  53e070:	21212121 	.word	0x21212121
  53e074:	61622021 	.word	0x61622021
  53e078:	66652064 	.word	0x66652064
  53e07c:	6873616c 	.word	0x6873616c
  53e080:	61657220 	.word	0x61657220
  53e084:	21000a64 	.word	0x21000a64
  53e088:	21212121 	.word	0x21212121
  53e08c:	64616220 	.word	0x64616220
  53e090:	64707520 	.word	0x64707520
  53e094:	20657461 	.word	0x20657461
  53e098:	676e656c 	.word	0x676e656c
  53e09c:	72206874 	.word	0x72206874
  53e0a0:	20646165 	.word	0x20646165
  53e0a4:	6d6f7266 	.word	0x6d6f7266
  53e0a8:	6c666520 	.word	0x6c666520
  53e0ac:	0a687361 	.word	0x0a687361
  53e0b0:	21212100 	.word	0x21212100
  53e0b4:	67202121 	.word	0x67202121
  53e0b8:	6c20746f 	.word	0x6c20746f
  53e0bc:	000a6e65 	.word	0x000a6e65
  53e0c0:	21212121 	.word	0x21212121
  53e0c4:	61622021 	.word	0x61622021
  53e0c8:	66732064 	.word	0x66732064
  53e0cc:	6873616c 	.word	0x6873616c
  53e0d0:	61657220 	.word	0x61657220
  53e0d4:	21000a64 	.word	0x21000a64
  53e0d8:	21212121 	.word	0x21212121
  53e0dc:	64616220 	.word	0x64616220
  53e0e0:	61726520 	.word	0x61726520
  53e0e4:	000a6573 	.word	0x000a6573
  53e0e8:	21212121 	.word	0x21212121
  53e0ec:	61622021 	.word	0x61622021
  53e0f0:	72772064 	.word	0x72772064
  53e0f4:	0a657469 	.word	0x0a657469
  53e0f8:	21212100 	.word	0x21212100
  53e0fc:	61202121 	.word	0x61202121
  53e100:	64206c6c 	.word	0x64206c6c
  53e104:	20617461 	.word	0x20617461
  53e108:	6e617274 	.word	0x6e617274
  53e10c:	72656673 	.word	0x72656673
  53e110:	20646572 	.word	0x20646572
  53e114:	65206f74 	.word	0x65206f74
  53e118:	73616c66 	.word	0x73616c66
  53e11c:	21000a68 	.word	0x21000a68
  53e120:	21212121 	.word	0x21212121
  53e124:	69786520 	.word	0x69786520
  53e128:	69772074 	.word	0x69772074
  53e12c:	5f646563 	.word	0x5f646563
  53e130:	6d726966 	.word	0x6d726966
  53e134:	65726177 	.word	0x65726177
  53e138:	6470755f 	.word	0x6470755f
  53e13c:	5f657461 	.word	0x5f657461
  53e140:	79706f63 	.word	0x79706f63
  53e144:	6c66735f 	.word	0x6c66735f
  53e148:	0a687361 	.word	0x0a687361
  53e14c:	00000000 	.word	0x00000000

0053e150 <init_wiced_firmware_update_copy_sflash>:
  53e150:	4b01      	ldr	r3, [pc, #4]	; (53e158 <init_wiced_firmware_update_copy_sflash+0x8>)
  53e152:	4a02      	ldr	r2, [pc, #8]	; (53e15c <init_wiced_firmware_update_copy_sflash+0xc>)
  53e154:	601a      	str	r2, [r3, #0]
  53e156:	4770      	bx	lr
  53e158:	0020584c 	.word	0x0020584c
  53e15c:	0053e161 	.word	0x0053e161

0053e160 <wiced_firmware_update_copy_sflash>:
  53e160:	e92d 47f3 	stmdb	sp!, {r0, r1, r4, r5, r6, r7, r8, r9, sl, lr}
  53e164:	2804      	cmp	r0, #4
  53e166:	f04f 0600 	mov.w	r6, #0
  53e16a:	9601      	str	r6, [sp, #4]
  53e16c:	f040 80b1 	bne.w	53e2d2 <wiced_firmware_update_copy_sflash+0x172>
  53e170:	4b5a      	ldr	r3, [pc, #360]	; (53e2dc <wiced_firmware_update_copy_sflash+0x17c>)
  53e172:	4f5b      	ldr	r7, [pc, #364]	; (53e2e0 <wiced_firmware_update_copy_sflash+0x180>)
  53e174:	69dd      	ldr	r5, [r3, #28]
  53e176:	4b5b      	ldr	r3, [pc, #364]	; (53e2e4 <wiced_firmware_update_copy_sflash+0x184>)
  53e178:	4c5b      	ldr	r4, [pc, #364]	; (53e2e8 <wiced_firmware_update_copy_sflash+0x188>)
  53e17a:	4798      	blx	r3
  53e17c:	4b5b      	ldr	r3, [pc, #364]	; (53e2ec <wiced_firmware_update_copy_sflash+0x18c>)
  53e17e:	495c      	ldr	r1, [pc, #368]	; (53e2f0 <wiced_firmware_update_copy_sflash+0x190>)
  53e180:	485c      	ldr	r0, [pc, #368]	; (53e2f4 <wiced_firmware_update_copy_sflash+0x194>)
  53e182:	2208      	movs	r2, #8
  53e184:	4798      	blx	r3
  53e186:	4603      	mov	r3, r0
  53e188:	2800      	cmp	r0, #0
  53e18a:	d145      	bne.n	53e218 <wiced_firmware_update_copy_sflash+0xb8>
  53e18c:	4602      	mov	r2, r0
  53e18e:	4601      	mov	r1, r0
  53e190:	201c      	movs	r0, #28
  53e192:	47b8      	blx	r7
  53e194:	210f      	movs	r1, #15
  53e196:	200a      	movs	r0, #10
  53e198:	47a0      	blx	r4
  53e19a:	210d      	movs	r1, #13
  53e19c:	2002      	movs	r0, #2
  53e19e:	47a0      	blx	r4
  53e1a0:	210e      	movs	r1, #14
  53e1a2:	200f      	movs	r0, #15
  53e1a4:	47a0      	blx	r4
  53e1a6:	2110      	movs	r1, #16
  53e1a8:	2008      	movs	r0, #8
  53e1aa:	47a0      	blx	r4
  53e1ac:	4f52      	ldr	r7, [pc, #328]	; (53e2f8 <wiced_firmware_update_copy_sflash+0x198>)
  53e1ae:	4853      	ldr	r0, [pc, #332]	; (53e2fc <wiced_firmware_update_copy_sflash+0x19c>)
  53e1b0:	4c53      	ldr	r4, [pc, #332]	; (53e300 <wiced_firmware_update_copy_sflash+0x1a0>)
  53e1b2:	47a0      	blx	r4
  53e1b4:	f44f 33fa 	mov.w	r3, #128000	; 0x1f400
  53e1b8:	603b      	str	r3, [r7, #0]
  53e1ba:	4b52      	ldr	r3, [pc, #328]	; (53e304 <wiced_firmware_update_copy_sflash+0x1a4>)
  53e1bc:	4798      	blx	r3
  53e1be:	4b52      	ldr	r3, [pc, #328]	; (53e308 <wiced_firmware_update_copy_sflash+0x1a8>)
  53e1c0:	22ec      	movs	r2, #236	; 0xec
  53e1c2:	701a      	strb	r2, [r3, #0]
  53e1c4:	4a51      	ldr	r2, [pc, #324]	; (53e30c <wiced_firmware_update_copy_sflash+0x1ac>)
  53e1c6:	7813      	ldrb	r3, [r2, #0]
  53e1c8:	f043 0301 	orr.w	r3, r3, #1
  53e1cc:	7013      	strb	r3, [r2, #0]
  53e1ce:	2100      	movs	r1, #0
  53e1d0:	f44f 7000 	mov.w	r0, #512	; 0x200
  53e1d4:	4b4e      	ldr	r3, [pc, #312]	; (53e310 <wiced_firmware_update_copy_sflash+0x1b0>)
  53e1d6:	4798      	blx	r3
  53e1d8:	4606      	mov	r6, r0
  53e1da:	b160      	cbz	r0, 53e1f6 <wiced_firmware_update_copy_sflash+0x96>
  53e1dc:	484d      	ldr	r0, [pc, #308]	; (53e314 <wiced_firmware_update_copy_sflash+0x1b4>)
  53e1de:	f5a5 05a0 	sub.w	r5, r5, #5242880	; 0x500000
  53e1e2:	47a0      	blx	r4
  53e1e4:	f44f 7200 	mov.w	r2, #512	; 0x200
  53e1e8:	4631      	mov	r1, r6
  53e1ea:	4628      	mov	r0, r5
  53e1ec:	4b4a      	ldr	r3, [pc, #296]	; (53e318 <wiced_firmware_update_copy_sflash+0x1b8>)
  53e1ee:	4798      	blx	r3
  53e1f0:	b318      	cbz	r0, 53e23a <wiced_firmware_update_copy_sflash+0xda>
  53e1f2:	484a      	ldr	r0, [pc, #296]	; (53e31c <wiced_firmware_update_copy_sflash+0x1bc>)
  53e1f4:	47a0      	blx	r4
  53e1f6:	484a      	ldr	r0, [pc, #296]	; (53e320 <wiced_firmware_update_copy_sflash+0x1c0>)
  53e1f8:	47a0      	blx	r4
  53e1fa:	4a4a      	ldr	r2, [pc, #296]	; (53e324 <wiced_firmware_update_copy_sflash+0x1c4>)
  53e1fc:	493e      	ldr	r1, [pc, #248]	; (53e2f8 <wiced_firmware_update_copy_sflash+0x198>)
  53e1fe:	6813      	ldr	r3, [r2, #0]
  53e200:	f423 7300 	bic.w	r3, r3, #512	; 0x200
  53e204:	6013      	str	r3, [r2, #0]
  53e206:	4b48      	ldr	r3, [pc, #288]	; (53e328 <wiced_firmware_update_copy_sflash+0x1c8>)
  53e208:	2200      	movs	r2, #0
  53e20a:	2005      	movs	r0, #5
  53e20c:	601a      	str	r2, [r3, #0]
  53e20e:	6008      	str	r0, [r1, #0]
  53e210:	60ca      	str	r2, [r1, #12]
  53e212:	2203      	movs	r2, #3
  53e214:	601a      	str	r2, [r3, #0]
  53e216:	e7fe      	b.n	53e216 <wiced_firmware_update_copy_sflash+0xb6>
  53e218:	4633      	mov	r3, r6
  53e21a:	4632      	mov	r2, r6
  53e21c:	2120      	movs	r1, #32
  53e21e:	2025      	movs	r0, #37	; 0x25
  53e220:	47b8      	blx	r7
  53e222:	210f      	movs	r1, #15
  53e224:	2006      	movs	r0, #6
  53e226:	47a0      	blx	r4
  53e228:	210d      	movs	r1, #13
  53e22a:	2009      	movs	r0, #9
  53e22c:	47a0      	blx	r4
  53e22e:	210e      	movs	r1, #14
  53e230:	200b      	movs	r0, #11
  53e232:	47a0      	blx	r4
  53e234:	2110      	movs	r1, #16
  53e236:	2011      	movs	r0, #17
  53e238:	e7b7      	b.n	53e1aa <wiced_firmware_update_copy_sflash+0x4a>
  53e23a:	2204      	movs	r2, #4
  53e23c:	eb0d 0002 	add.w	r0, sp, r2
  53e240:	4b3a      	ldr	r3, [pc, #232]	; (53e32c <wiced_firmware_update_copy_sflash+0x1cc>)
  53e242:	4631      	mov	r1, r6
  53e244:	4798      	blx	r3
  53e246:	9b01      	ldr	r3, [sp, #4]
  53e248:	4a39      	ldr	r2, [pc, #228]	; (53e330 <wiced_firmware_update_copy_sflash+0x1d0>)
  53e24a:	3b1a      	subs	r3, #26
  53e24c:	4293      	cmp	r3, r2
  53e24e:	d901      	bls.n	53e254 <wiced_firmware_update_copy_sflash+0xf4>
  53e250:	4838      	ldr	r0, [pc, #224]	; (53e334 <wiced_firmware_update_copy_sflash+0x1d4>)
  53e252:	e7cf      	b.n	53e1f4 <wiced_firmware_update_copy_sflash+0x94>
  53e254:	4838      	ldr	r0, [pc, #224]	; (53e338 <wiced_firmware_update_copy_sflash+0x1d8>)
  53e256:	f8df 80fc 	ldr.w	r8, [pc, #252]	; 53e354 <wiced_firmware_update_copy_sflash+0x1f4>
  53e25a:	f8df 90fc 	ldr.w	r9, [pc, #252]	; 53e358 <wiced_firmware_update_copy_sflash+0x1f8>
  53e25e:	47a0      	blx	r4
  53e260:	9b01      	ldr	r3, [sp, #4]
  53e262:	f423 73ff 	bic.w	r3, r3, #510	; 0x1fe
  53e266:	f023 0301 	bic.w	r3, r3, #1
  53e26a:	9301      	str	r3, [sp, #4]
  53e26c:	9801      	ldr	r0, [sp, #4]
  53e26e:	2800      	cmp	r0, #0
  53e270:	db0c      	blt.n	53e28c <wiced_firmware_update_copy_sflash+0x12c>
  53e272:	f44f 33fa 	mov.w	r3, #128000	; 0x1f400
  53e276:	603b      	str	r3, [r7, #0]
  53e278:	4632      	mov	r2, r6
  53e27a:	f44f 7100 	mov.w	r1, #512	; 0x200
  53e27e:	47c0      	blx	r8
  53e280:	f5b0 7f00 	cmp.w	r0, #512	; 0x200
  53e284:	4682      	mov	sl, r0
  53e286:	d00f      	beq.n	53e2a8 <wiced_firmware_update_copy_sflash+0x148>
  53e288:	482c      	ldr	r0, [pc, #176]	; (53e33c <wiced_firmware_update_copy_sflash+0x1dc>)
  53e28a:	47a0      	blx	r4
  53e28c:	482c      	ldr	r0, [pc, #176]	; (53e340 <wiced_firmware_update_copy_sflash+0x1e0>)
  53e28e:	47a0      	blx	r4
  53e290:	f44f 131c 	mov.w	r3, #2555904	; 0x270000
  53e294:	4a2b      	ldr	r2, [pc, #172]	; (53e344 <wiced_firmware_update_copy_sflash+0x1e4>)
  53e296:	601a      	str	r2, [r3, #0]
  53e298:	f44f 1344 	mov.w	r3, #3211264	; 0x310000
  53e29c:	225e      	movs	r2, #94	; 0x5e
  53e29e:	601a      	str	r2, [r3, #0]
  53e2a0:	2201      	movs	r2, #1
  53e2a2:	f8c3 2404 	str.w	r2, [r3, #1028]	; 0x404
  53e2a6:	e7a6      	b.n	53e1f6 <wiced_firmware_update_copy_sflash+0x96>
  53e2a8:	4601      	mov	r1, r0
  53e2aa:	9801      	ldr	r0, [sp, #4]
  53e2ac:	4428      	add	r0, r5
  53e2ae:	47c8      	blx	r9
  53e2b0:	b108      	cbz	r0, 53e2b6 <wiced_firmware_update_copy_sflash+0x156>
  53e2b2:	4825      	ldr	r0, [pc, #148]	; (53e348 <wiced_firmware_update_copy_sflash+0x1e8>)
  53e2b4:	e7e9      	b.n	53e28a <wiced_firmware_update_copy_sflash+0x12a>
  53e2b6:	9801      	ldr	r0, [sp, #4]
  53e2b8:	4b24      	ldr	r3, [pc, #144]	; (53e34c <wiced_firmware_update_copy_sflash+0x1ec>)
  53e2ba:	4652      	mov	r2, sl
  53e2bc:	4631      	mov	r1, r6
  53e2be:	4428      	add	r0, r5
  53e2c0:	4798      	blx	r3
  53e2c2:	b108      	cbz	r0, 53e2c8 <wiced_firmware_update_copy_sflash+0x168>
  53e2c4:	4822      	ldr	r0, [pc, #136]	; (53e350 <wiced_firmware_update_copy_sflash+0x1f0>)
  53e2c6:	e7e0      	b.n	53e28a <wiced_firmware_update_copy_sflash+0x12a>
  53e2c8:	9b01      	ldr	r3, [sp, #4]
  53e2ca:	f5a3 7300 	sub.w	r3, r3, #512	; 0x200
  53e2ce:	9301      	str	r3, [sp, #4]
  53e2d0:	e7cc      	b.n	53e26c <wiced_firmware_update_copy_sflash+0x10c>
  53e2d2:	4630      	mov	r0, r6
  53e2d4:	b002      	add	sp, #8
  53e2d6:	e8bd 87f0 	ldmia.w	sp!, {r4, r5, r6, r7, r8, r9, sl, pc}
  53e2da:	bf00      	nop
  53e2dc:	0020052c 	.word	0x0020052c
  53e2e0:	000d3947 	.word	0x000d3947
  53e2e4:	000d3935 	.word	0x000d3935
  53e2e8:	00083471 	.word	0x00083471
  53e2ec:	0007dec9 	.word	0x0007dec9
  53e2f0:	0053e01a 	.word	0x0053e01a
  53e2f4:	0053e023 	.word	0x0053e023
  53e2f8:	00329000 	.word	0x00329000
  53e2fc:	0053e034 	.word	0x0053e034
  53e300:	000d39cf 	.word	0x000d39cf
  53e304:	0027287d 	.word	0x0027287d
  53e308:	002058b4 	.word	0x002058b4
  53e30c:	002058cc 	.word	0x002058cc
  53e310:	00001dd1 	.word	0x00001dd1
  53e314:	0053e05d 	.word	0x0053e05d
  53e318:	000d3a4b 	.word	0x000d3a4b
  53e31c:	0053e070 	.word	0x0053e070
  53e320:	0053e11f 	.word	0x0053e11f
  53e324:	00338148 	.word	0x00338148
  53e328:	00329008 	.word	0x00329008
  53e32c:	00006d31 	.word	0x00006d31
  53e330:	0003ffe6 	.word	0x0003ffe6
  53e334:	0053e087 	.word	0x0053e087
  53e338:	0053e0b1 	.word	0x0053e0b1
  53e33c:	0053e0c0 	.word	0x0053e0c0
  53e340:	0053e0f9 	.word	0x0053e0f9
  53e344:	e7fee7fe 	.word	0xe7fee7fe
  53e348:	0053e0d7 	.word	0x0053e0d7
  53e34c:	000d3a5d 	.word	0x000d3a5d
  53e350:	0053e0e8 	.word	0x0053e0e8
  53e354:	000d3815 	.word	0x000d3815
  53e358:	000d3a6f 	.word	0x000d3a6f

Disassembly of section .app_xip_area:

00511500 <mesh_app_lpn_sleep>:
  511500:	00004770 	.word	0x00004770

00511504 <mesh_app_factory_reset>:
  511504:	f44f2100 	.word	0xf44f2100
  511508:	4b017000 	.word	0x4b017000
  51150c:	bf004718 	.word	0xbf004718
  511510:	0008a5cd 	.word	0x0008a5cd

00511514 <mesh_sensor_server_restart_timer>:
  511514:	41f0e92d 	.word	0x41f0e92d
  511518:	4b1b4c1a 	.word	0x4b1b4c1a
  51151c:	4f1b6826 	.word	0x4f1b6826
  511520:	481b4605 	.word	0x481b4605
  511524:	68224798 	.word	0x68224798
  511528:	69ecb96a 	.word	0x69ecb96a
  51152c:	69abb11c 	.word	0x69abb11c
  511530:	696bb9d3 	.word	0x696bb9d3
  511534:	2300b9c3 	.word	0x2300b9c3
  511538:	4a1646bc 	.word	0x4a1646bc
  51153c:	46184619 	.word	0x46184619
  511540:	41f0e8bd 	.word	0x41f0e8bd
  511544:	89eb4760 	.word	0x89eb4760
  511548:	bf952b01 	.word	0xbf952b01
  51154c:	fbb22300 	.word	0xfbb22300
  511550:	6063f6f3 	.word	0x6063f6f3
  511554:	6066      	strhi	r6, [r4, #4]
  511556:	69ec      	ldr	r4, [r5, #28]
  511558:	d21042b4 	.word	0xd21042b4
  51155c:	69ab      	ldr	r3, [r5, #24]
  51155e:	b91b      	.short	0xb91b
  511560:	696b      	ldr	r3, [r5, #20]
  511562:	2b00      	.short	0x2b00
  511564:	bf08      	it	eq
  511566:	4634      	.short	0x4634
  511568:	2100      	movs	r1, #0
  51156a:	4623      	.short	0x4623
  51156c:	4608      	mov	r0, r1
  51156e:	4a0a      	.short	0x4a0a
  511570:	47b8      	blx	r7	; unpredictable branch in IT block

  511572:	4621      	.short	0x4621
  511574:	4806      	ldr	r0, [pc, #24]	; (511590 <mesh_sensor_server_restart_timer+0x7c>)
  511576:	4b09      	.short	0x4b09
  511578:	e8bd 41f0 	ldmia.w	sp!, {r4, r5, r6, r7, r8, lr}
  51157c:	46344718 	.word	0x46344718
  511580:	e7f2      	b.n	511568 <mesh_sensor_server_restart_timer+0x54>	; unpredictable branch in IT block

  511582:	bf00      	.short	0xbf00
  511584:	006c      	lsls	r4, r5, #1
  511586:	0021      	.short	0x0021
  511588:	64ad      	str	r5, [r5, #72]	; 0x48
  51158a:	0000      	.short	0x0000
  51158c:	3259      	adds	r2, #89	; 0x59
  51158e:	000d      	.short	0x000d
  511590:	06b0      	lsls	r0, r6, #26
  511592:	0021      	.short	0x0021
  511594:	1a54      	subs	r4, r2, r1
  511596:	0051      	.short	0x0051
  511598:	1a74      	subs	r4, r6, r1
  51159a:	0051      	.short	0x0051
  51159c:	647b      	str	r3, [r7, #68]	; 0x44
	...

005115a0 <mesh_app_init>:
  5115a0:	41f0e92d 	.word	0x41f0e92d
  5115a4:	4b38      	ldr	r3, [pc, #224]	; (511688 <mesh_app_init+0xe8>)
  5115a6:	4c39      	.short	0x4c39
  5115a8:	b08a      	sub	sp, #40	; 0x28
  5115aa:	4606      	.short	0x4606
  5115ac:	4798      	blx	r3	; unpredictable branch in IT block

  5115ae:	f240      	.short	0xf240
  5115b0:	5343      	strh	r3, [r0, r5]
  5115b2:	4607      	.short	0x4607
  5115b4:	4836      	ldr	r0, [pc, #216]	; (511690 <mesh_app_init+0xf0>)
  5115b6:	6020      	.short	0x6020
  5115b8:	f8a4 305c 	strh.w	r3, [r4, #92]	; 0x5c
  5115bc:	2309b9d6 	.word	0x2309b9d6
  5115c0:	f88d 3016 	strb.w	r3, [sp, #22]
  5115c4:	47984b33 	.word	0x47984b33
  5115c8:	6823      	ldr	r3, [r4, #0]
  5115ca:	9304      	.short	0x9304
  5115cc:	2319      	movs	r3, #25
  5115ce:	f88d      	.short	0xf88d
  5115d0:	301e      	adds	r0, #30
  5115d2:	f8b4      	.short	0xf8b4
  5115d4:	305c      	adds	r0, #92	; 0x5c
  5115d6:	f88d      	.short	0xf88d
  5115d8:	300c      	adds	r0, #12
  5115da:	0a1b      	lsreq	r3, r3, #8
  5115dc:	0014f8ad 	.word	0x0014f8ad
  5115e0:	f88d 300d 	strb.w	r3, [sp, #13]
  5115e4:	ab032002 	.word	0xab032002
  5115e8:	9306      	str	r3, [sp, #24]
  5115ea:	f8ad      	.short	0xf8ad
  5115ec:	001c      	movs	r4, r3
  5115ee:	a904      	.short	0xa904
  5115f0:	4b29      	ldr	r3, [pc, #164]	; (511698 <mesh_app_init+0xf8>)
  5115f2:	4798      	.short	0x4798
  5115f4:	4c29      	ldr	r4, [pc, #164]	; (51169c <mesh_app_init+0xfc>)
  5115f6:	f8d4      	.short	0xf8d4
  5115f8:	302f      	adds	r0, #47	; 0x2f
  5115fa:	f8d3      	.short	0xf8d3
  5115fc:	8014      	strh	r4, [r2, #0]
  5115fe:	2330      	.short	0x2330
  511600:	f884 3033 	strb.w	r3, [r4, #51]	; 0x33
  511604:	3035f884 	.word	0x3035f884
  511608:	f884 3037 	strb.w	r3, [r4, #55]	; 0x37
  51160c:	f8842332 	.word	0xf8842332
  511610:	3038      	adds	r0, #56	; 0x38
  511612:	2342      	.short	0x2342
  511614:	2231      	movs	r2, #49	; 0x31
  511616:	f884      	.short	0xf884
  511618:	3039      	adds	r0, #57	; 0x39
  51161a:	2333      	.short	0x2333
  51161c:	f884 2034 	strb.w	r2, [r4, #52]	; 0x34
  511620:	2036f884 	.word	0x2036f884
  511624:	f884 303a 	strb.w	r3, [r4, #58]	; 0x3a
  511628:	d02a2e00 	.word	0xd02a2e00
  51162c:	4b1c      	ldr	r3, [pc, #112]	; (5116a0 <mesh_app_init+0x100>)
  51162e:	4d1d      	.short	0x4d1d
  511630:	4798      	blx	r3
  511632:	4b1d      	.short	0x4b1d
  511634:	4798      	blx	r3
  511636:	60a8      	.short	0x60a8
  511638:	f8d4 202f 	ldr.w	r2, [r4, #47]	; 0x2f
  51163c:	6952491b 	.word	0x6952491b
  511640:	4c1b      	ldr	r4, [pc, #108]	; (5116b0 <mesh_app_init+0x110>)
  511642:	481c      	ldr	r0, [pc, #112]	; (5116b4 <mesh_app_init+0x114>)
  511644:	47a02302 	.word	0x47a02302
  511648:	ab04      	add	r3, sp, #16
  51164a:	f108      	.short	0xf108
  51164c:	020e      	lsls	r6, r1, #8
  51164e:	211a      	.short	0x211a
  511650:	4c19      	ldr	r4, [pc, #100]	; (5116b8 <mesh_app_init+0x118>)
  511652:	f44f      	.short	0xf44f
  511654:	7000      	strb	r0, [r0, #0]
  511656:	47a0      	.short	0x47a0
  511658:	4633      	mov	r3, r6
  51165a:	4a18      	.short	0x4a18
  51165c:	4918      	ldr	r1, [pc, #96]	; (5116c0 <mesh_app_init+0x120>)
  51165e:	4c19      	.short	0x4c19
  511660:	2000      	movs	r0, #0
  511662:	47a0      	.short	0x47a0
  511664:	4a18      	ldr	r2, [pc, #96]	; (5116c8 <mesh_app_init+0x128>)
  511666:	68ab      	.short	0x68ab
  511668:	6017      	str	r7, [r2, #0]
  51166a:	2100      	.short	0x2100
  51166c:	4a17      	ldr	r2, [pc, #92]	; (5116cc <mesh_app_init+0x12c>)
  51166e:	9700      	.short	0x9700
  511670:	4608      	mov	r0, r1
  511672:	4c17      	.short	0x4c17
  511674:	60eb      	str	r3, [r5, #12]
  511676:	47a0      	.short	0x47a0
  511678:	2200      	movs	r2, #0
  51167a:	214f      	.short	0x214f
  51167c:	4610      	mov	r0, r2
  51167e:	4b15      	.short	0x4b15
  511680:	4798      	blx	r3
  511682:	b00a      	.short	0xb00a
  511684:	e8bd 81f0 	ldmia.w	sp!, {r4, r5, r6, r7, r8, pc}
  511688:	000c7fab 	.word	0x000c7fab
  51168c:	fd94 0020 	ldc2	0, cr0, [r4, #128]	; 0x80
  511690:	00511a8d 	.word	0x00511a8d
  511694:	5ad3      	ldrh	r3, [r2, r3]
  511696:	0005      	.short	0x0005
  511698:	624d      	str	r5, [r1, #36]	; 0x24
  51169a:	0051      	.short	0x0051
  51169c:	fe74 0020 	cdp2	0, 7, cr0, cr4, cr0, {1}
  5116a0:	00511e75 	.word	0x00511e75
  5116a4:	006c      	lsls	r4, r5, #1
  5116a6:	0021      	.short	0x0021
  5116a8:	1e7d      	subs	r5, r7, #1
  5116aa:	0051      	.short	0x0051
  5116ac:	16d9      	asrs	r1, r3, #27
  5116ae:	0051      	.short	0x0051
  5116b0:	6451      	str	r1, [r2, #68]	; 0x44
  5116b2:	0000      	.short	0x0000
  5116b4:	06b0      	lsls	r0, r6, #26
  5116b6:	0021      	.short	0x0021
  5116b8:	a5b3      	add	r5, pc, #716	; (adr r5, 511988 <mesh_sensor_server_config_change_handler+0xd8>)
  5116ba:	0008      	.short	0x0008
  5116bc:	18b1      	adds	r1, r6, r2
  5116be:	0051      	.short	0x0051
  5116c0:	19f1      	adds	r1, r6, r7
  5116c2:	0051      	.short	0x0051
  5116c4:	409d      	lsls	r5, r3
  5116c6:	0052      	.short	0x0052
  5116c8:	06e8      	lsls	r0, r5, #27
  5116ca:	0021      	.short	0x0021
  5116cc:	1aa2      	subs	r2, r4, r2
  5116ce:	0051      	.short	0x0051
  5116d0:	3259      	adds	r2, #89	; 0x59
  5116d2:	000d      	.short	0x000d
  5116d4:	40fd      	lsrs	r5, r7
  5116d6:	0052      	.short	0x0052

005116d8 <mesh_sensor_publish_timer_callback>:
  5116d8:	e92d 43f0 	stmdb	sp!, {r4, r5, r6, r7, r8, r9, lr}
  5116dc:	f8df4b60 	.word	0xf8df4b60
  5116e0:	81cc      	strh	r4, [r1, #14]
  5116e2:	4c60      	.short	0x4c60
  5116e4:	b085      	sub	sp, #20
  5116e6:	4605      	.short	0x4605
  5116e8:	4798      	blx	r3
  5116ea:	4b5f      	.short	0x4b5f
  5116ec:	4606      	mov	r6, r0
  5116ee:	4798      	.short	0x4798
  5116f0:	f8d8 3000 	ldr.w	r3, [r8]
  5116f4:	69ea60a0 	.word	0x69ea60a0
  5116f8:	1af3      	subs	r3, r6, r3
  5116fa:	4293      	.short	0x4293
  5116fc:	4647      	mov	r7, r8
  5116fe:	d210      	.short	0xd210
  511700:	2100      	movs	r1, #0
  511702:	9200      	.short	0x9200
  511704:	4608      	mov	r0, r1
  511706:	4a59      	.short	0x4a59
  511708:	4c59      	ldr	r4, [pc, #356]	; (511870 <mesh_sensor_publish_timer_callback+0x198>)
  51170a:	47a0      	.short	0x47a0
  51170c:	f8d8 3000 	ldr.w	r3, [r8]
  511710:	485869e9 	.word	0x485869e9
  511714:	4419      	add	r1, r3
  511716:	4b58      	.short	0x4b58
  511718:	1b89      	subs	r1, r1, r6
  51171a:	b005      	.short	0xb005
  51171c:	43f0e8bd 	.word	0x43f0e8bd
  511720:	4718      	bx	r3
  511722:	6822      	.short	0x6822
  511724:	b132      	cbz	r2, 511734 <mesh_sensor_publish_timer_callback+0x5c>
  511726:	4293      	.short	0x4293
  511728:	d304      	bcc.n	511734 <mesh_sensor_publish_timer_callback+0x5c>
  51172a:	4a54      	.short	0x4a54
  51172c:	4b50      	ldr	r3, [pc, #320]	; (511870 <mesh_sensor_publish_timer_callback+0x198>)
  51172e:	2100      	.short	0x2100
  511730:	4608      	mov	r0, r1
  511732:	e024      	.short	0xe024
  511734:	69ab      	ldr	r3, [r5, #24]
  511736:	b913      	.short	0xb913
  511738:	696a      	ldr	r2, [r5, #20]
  51173a:	2a00      	.short	0x2a00
  51173c:	d077      	beq.n	51182e <mesh_sensor_publish_timer_callback+0x156>
  51173e:	6929      	.short	0x6929
  511740:	b9f9      	cbnz	r1, 511782 <mesh_sensor_publish_timer_callback+0xaa>
  511742:	696a      	.short	0x696a
  511744:	f8df 8128 	ldr.w	r8, [pc, #296]	; 511870 <mesh_sensor_publish_timer_callback+0x198>
  511748:	3201e9cd 	.word	0x3201e9cd
  51174c:	68e3      	ldr	r3, [r4, #12]
  51174e:	9300      	.short	0x9300
  511750:	4a4b      	ldr	r2, [pc, #300]	; (511880 <mesh_sensor_publish_timer_callback+0x1a8>)
  511752:	4603      	mov	r3, r0
  511754:	47c04608 	.word	0x47c04608
  511758:	69aa      	ldr	r2, [r5, #24]
  51175a:	4643      	.short	0x4643
  51175c:	b122      	cbz	r2, 511768 <mesh_sensor_publish_timer_callback+0x90>
  51175e:	68e1      	.short	0x68e1
  511760:	440a      	add	r2, r1
  511762:	68a1      	.short	0x68a1
  511764:	428a      	cmp	r2, r1
  511766:	d907      	.short	0xd907
  511768:	6969      	ldr	r1, [r5, #20]
  51176a:	2900      	.short	0x2900
  51176c:	d05f      	beq.n	51182e <mesh_sensor_publish_timer_callback+0x156>
  51176e:	68e2      	.short	0x68e2
  511770:	1a52      	subs	r2, r2, r1
  511772:	68a1      	.short	0x68a1
  511774:	428a      	cmp	r2, r1
  511776:	d35a      	.short	0xd35a
  511778:	2100      	movs	r1, #0
  51177a:	4a42      	.short	0x4a42
  51177c:	4608      	mov	r0, r1
  51177e:	4798      	.short	0x4798
  511780:	e021      	b.n	5117c6 <mesh_sensor_publish_timer_callback+0xee>
  511782:	2b00      	.short	0x2b00
  511784:	d033      	beq.n	5117ee <mesh_sensor_publish_timer_callback+0x116>
  511786:	68e3      	.short	0x68e3
  511788:	4283      	cmp	r3, r0
  51178a:	da30      	.short	0xda30
  51178c:	2100      	movs	r1, #0
  51178e:	1ac3      	.short	0x1ac3
  511790:	f242 7810 	movw	r8, #10000	; 0x2710
  511794:	f303fb08 	.word	0xf303fb08
  511798:	4a3b      	ldr	r2, [pc, #236]	; (511888 <mesh_sensor_publish_timer_callback+0x1b0>)
  51179a:	fbb3 f3f0 	udiv	r3, r3, r0
  51179e:	f8df      	.short	0xf8df
  5117a0:	90d0      	str	r0, [sp, #832]	; 0x340
  5117a2:	4608      	.short	0x4608
  5117a4:	47c8      	blx	r9
  5117a6:	e9d4      	.short	0xe9d4
  5117a8:	3202      	adds	r2, #2
  5117aa:	1a9a      	.short	0x1a9a
  5117ac:	fb08 f802 	mul.w	r8, r8, r2
  5117b0:	fbb869aa 	.word	0xfbb869aa
  5117b4:	f1f3 4291 			; <UNDEFINED> instruction: 0xf1f34291
  5117b8:	fb98d939 	.word	0xfb98d939
  5117bc:	f3f3 4a33 			; <UNDEFINED> instruction: 0xf3f34a33
  5117c0:	46082100 	.word	0x46082100
  5117c4:	47c8      	blx	r9
  5117c6:	68a3      	.short	0x68a3
  5117c8:	60e3      	str	r3, [r4, #12]
  5117ca:	2100      	.short	0x2100
  5117cc:	603e      	str	r6, [r7, #0]
  5117ce:	4a30      	.short	0x4a30
  5117d0:	9600      	str	r6, [sp, #0]
  5117d2:	4608      	.short	0x4608
  5117d4:	4c26      	ldr	r4, [pc, #152]	; (511870 <mesh_sensor_publish_timer_callback+0x198>)
  5117d6:	47a0      	.short	0x47a0
  5117d8:	2200      	movs	r2, #0
  5117da:	214f      	.short	0x214f
  5117dc:	4610      	mov	r0, r2
  5117de:	4b2d      	.short	0x4b2d
  5117e0:	4798      	blx	r3
  5117e2:	4b2d      	.short	0x4b2d
  5117e4:	4628      	mov	r0, r5
  5117e6:	b005      	.short	0xb005
  5117e8:	e8bd 43f0 	ldmia.w	sp!, {r4, r5, r6, r7, r8, r9, lr}
  5117ec:	696b4718 	.word	0x696b4718
  5117f0:	b1eb      	cbz	r3, 51182e <mesh_sensor_publish_timer_callback+0x156>
  5117f2:	68e3      	.short	0x68e3
  5117f4:	4283      	cmp	r3, r0
  5117f6:	dd1a      	.short	0xdd1a
  5117f8:	2100      	movs	r1, #0
  5117fa:	1a1b      	.short	0x1a1b
  5117fc:	f242 7810 	movw	r8, #10000	; 0x2710
  511800:	f303fb08 	.word	0xf303fb08
  511804:	4a25      	ldr	r2, [pc, #148]	; (51189c <mesh_sensor_publish_timer_callback+0x1c4>)
  511806:	fbb3      	.short	0xfbb3
  511808:	f3f0 f8df 	bl	9019ca <ds2_xip_end+0x3c366e>
  51180c:	46089064 	.word	0x46089064
  511810:	47c8      	blx	r9
  511812:	e9d4      	.short	0xe9d4
  511814:	3202      	adds	r2, #2
  511816:	1ad2      	.short	0x1ad2
  511818:	fb08 f802 	mul.w	r8, r8, r2
  51181c:	696a      	ldr	r2, [r5, #20]
  51181e:	fbb8      	.short	0xfbb8
  511820:	f1f3 4291 			; <UNDEFINED> instruction: 0xf1f34291
  511824:	fb98d903 	.word	0xfb98d903
  511828:	f3f3 4a1d 			; <UNDEFINED> instruction: 0xf3f34a1d
  51182c:	6862e7c8 	.word	0x6862e7c8
  511830:	2a00      	cmp	r2, #0
  511832:	d0d6      	.short	0xd0d6
  511834:	683b      	ldr	r3, [r7, #0]
  511836:	1af3      	.short	0x1af3
  511838:	429a      	cmp	r2, r3
  51183a:	d8d2      	.short	0xd8d2
  51183c:	6a6a      	ldr	r2, [r5, #36]	; 0x24
  51183e:	6a29      	.short	0x6a29
  511840:	68a3      	ldr	r3, [r4, #8]
  511842:	428a      	.short	0x428a
  511844:	d305      	bcc.n	511852 <mesh_sensor_publish_timer_callback+0x17a>
  511846:	428b      	.short	0x428b
  511848:	d3cb      	bcc.n	5117e2 <mesh_sensor_publish_timer_callback+0x10a>
  51184a:	4293      	.short	0x4293
  51184c:	d8c9      	bhi.n	5117e2 <mesh_sensor_publish_timer_callback+0x10a>
  51184e:	4a15      	.short	0x4a15
  511850:	e76c      	b.n	51172c <mesh_sensor_publish_timer_callback+0x54>
  511852:	428b      	.short	0x428b
  511854:	d801      	bhi.n	51185a <mesh_sensor_publish_timer_callback+0x182>
  511856:	4293      	.short	0x4293
  511858:	d2c3      	bcs.n	5117e2 <mesh_sensor_publish_timer_callback+0x10a>
  51185a:	4a13      	.short	0x4a13
  51185c:	e766      	b.n	51172c <mesh_sensor_publish_timer_callback+0x54>
  51185e:	bf00      	.short	0xbf00
  511860:	7fab      	ldrb	r3, [r5, #30]
  511862:	000c      	.short	0x000c
  511864:	006c      	lsls	r4, r5, #1
  511866:	0021      	.short	0x0021
  511868:	1e7d      	subs	r5, r7, #1
  51186a:	0051      	.short	0x0051
  51186c:	1ab8      	subs	r0, r7, r2
  51186e:	0051      	.short	0x0051
  511870:	3259      	adds	r2, #89	; 0x59
  511872:	000d      	.short	0x000d
  511874:	06b0      	lsls	r0, r6, #26
  511876:	0021      	.short	0x0021
  511878:	647b      	str	r3, [r7, #68]	; 0x44
  51187a:	0000      	.short	0x0000
  51187c:	1adc      	subs	r4, r3, r3
  51187e:	0051      	.short	0x0051
  511880:	1aef      	subs	r7, r5, r3
  511882:	0051      	.short	0x0051
  511884:	1b18      	subs	r0, r3, r4
  511886:	0051      	.short	0x0051
  511888:	1b31      	subs	r1, r6, r4
  51188a:	0051      	.short	0x0051
  51188c:	1b3e      	subs	r6, r7, r4
  51188e:	0051      	.short	0x0051
  511890:	1aa2      	subs	r2, r4, r2
  511892:	0051      	.short	0x0051
  511894:	40fd      	lsrs	r5, r7
  511896:	0052      	.short	0x0052
  511898:	1515      	asrs	r5, r2, #20
  51189a:	0051      	.short	0x0051
  51189c:	1b5e      	subs	r6, r3, r5
  51189e:	0051      	.short	0x0051
  5118a0:	1b6d      	subs	r5, r5, r5
  5118a2:	0051      	.short	0x0051
  5118a4:	1b8f      	subs	r7, r1, r6
  5118a6:	0051      	.short	0x0051
  5118a8:	1ba4      	subs	r4, r4, r6
  5118aa:	0051      	.short	0x0051
  5118ac:	06e8      	lsls	r0, r5, #27
  5118ae:	0021      	.short	0x0021

005118b0 <mesh_sensor_server_config_change_handler>:
  5118b0:	e92d 41ff 	stmdb	sp!, {r0, r1, r2, r3, r4, r5, r6, r7, r8, lr}
  5118b4:	4698460e 	.word	0x4698460e
  5118b8:	460b      	mov	r3, r1
  5118ba:	2100      	.short	0x2100
  5118bc:	4605      	mov	r5, r0
  5118be:	4617      	.short	0x4617
  5118c0:	4608      	mov	r0, r1
  5118c2:	4a2a      	.short	0x4a2a
  5118c4:	4c2a      	ldr	r4, [pc, #168]	; (511970 <mesh_sensor_server_config_change_handler+0xc0>)
  5118c6:	47a0      	.short	0x47a0
  5118c8:	2e79      	cmp	r6, #121	; 0x79
  5118ca:	d004      	.short	0xd004
  5118cc:	2e7f      	cmp	r6, #127	; 0x7f
  5118ce:	d045      	.short	0xd045
  5118d0:	b004      	add	sp, #16
  5118d2:	e8bd      	.short	0xe8bd
  5118d4:	81f0      	strh	r0, [r6, #14]
  5118d6:	4b27      	.short	0x4b27
  5118d8:	4e27      	ldr	r6, [pc, #156]	; (511978 <mesh_sensor_server_config_change_handler+0xc8>)
  5118da:	f8d3      	.short	0xf8d3
  5118dc:	302f      	adds	r0, #47	; 0x2f
  5118de:	ebc5      	.short	0xebc5
  5118e0:	02c5      	lsls	r5, r0, #11
  5118e2:	eb05      	.short	0xeb05
  5118e4:	0582      	lsls	r2, r0, #22
  5118e6:	441d      	.short	0x441d
  5118e8:	2100      	movs	r1, #0
  5118ea:	696d      	.short	0x696d
  5118ec:	4a23      	ldr	r2, [pc, #140]	; (51197c <mesh_sensor_server_config_change_handler+0xcc>)
  5118ee:	463b      	.short	0x463b
  5118f0:	4608      	mov	r0, r1
  5118f2:	47a0      	.short	0x47a0
  5118f4:	2100      	movs	r1, #0
  5118f6:	89eb      	.short	0x89eb
  5118f8:	4a21      	ldr	r2, [pc, #132]	; (511980 <mesh_sensor_server_config_change_handler+0xd0>)
  5118fa:	4608      	.short	0x4608
  5118fc:	47a0      	blx	r4
  5118fe:	2100      	.short	0x2100
  511900:	692b      	ldr	r3, [r5, #16]
  511902:	4a20      	.short	0x4a20
  511904:	4608      	mov	r0, r1
  511906:	47a0      	.short	0x47a0
  511908:	2100      	movs	r1, #0
  51190a:	69ab      	.short	0x69ab
  51190c:	4a1e      	ldr	r2, [pc, #120]	; (511988 <mesh_sensor_server_config_change_handler+0xd8>)
  51190e:	4608      	.short	0x4608
  511910:	47a0      	blx	r4
  511912:	2100      	.short	0x2100
  511914:	696b      	ldr	r3, [r5, #20]
  511916:	4a1d      	.short	0x4a1d
  511918:	4608      	mov	r0, r1
  51191a:	47a0      	.short	0x47a0
  51191c:	2100      	movs	r1, #0
  51191e:	69eb      	.short	0x69eb
  511920:	4a1b      	ldr	r2, [pc, #108]	; (511990 <mesh_sensor_server_config_change_handler+0xe0>)
  511922:	4608      	.short	0x4608
  511924:	47a0      	blx	r4
  511926:	2100      	movs	r1, #0
  511928:	6a2b      	ldr	r3, [r5, #32]
  51192a:	4a1a      	ldr	r2, [pc, #104]	; (511994 <mesh_sensor_server_config_change_handler+0xe4>)
  51192c:	4608      	mov	r0, r1
  51192e:	47a0      	.short	0x47a0
  511930:	2100      	movs	r1, #0
  511932:	6a6b      	.short	0x6a6b
  511934:	4a18      	ldr	r2, [pc, #96]	; (511998 <mesh_sensor_server_config_change_handler+0xe8>)
  511936:	4608      	mov	r0, r1
  511938:	f10d47a0 	.word	0xf10d47a0
  51193c:	030e      	lsls	r6, r1, #12
  51193e:	f105      	.short	0xf105
  511940:	020e      	lsls	r6, r1, #8
  511942:	211a      	.short	0x211a
  511944:	f44f 7000 	mov.w	r0, #512	; 0x200
  511948:	210047b0 	.word	0x210047b0
  51194c:	b2c3      	uxtb	r3, r0
  51194e:	4a13      	.short	0x4a13
  511950:	4608      	mov	r0, r1
  511952:	47a0      	.short	0x47a0
  511954:	4628      	mov	r0, r5
  511956:	4b12      	.short	0x4b12
  511958:	4798      	blx	r3
  51195a:	e7b9      	.short	0xe7b9
  51195c:	2100      	movs	r1, #0
  51195e:	f8cd 8000 	str.w	r8, [sp]
  511962:	463b      	.short	0x463b
  511964:	4a0f      	ldr	r2, [pc, #60]	; (5119a4 <mesh_sensor_server_config_change_handler+0xf4>)
  511966:	4608      	.short	0x4608
  511968:	47a0      	blx	r4
  51196a:	e7b1      	.short	0xe7b1
  51196c:	1bbd      	subs	r5, r7, r6
  51196e:	0051      	.short	0x0051
  511970:	3259      	adds	r2, #89	; 0x59
  511972:	000d      	.short	0x000d
  511974:	fe74 0020 	cdp2	0, 7, cr0, cr4, cr0, {1}
  511978:	a597      	add	r5, pc, #604	; (adr r5, 511bd8 <mesh_sensor_server_report_handler+0x1e8>)
  51197a:	0008      	.short	0x0008
  51197c:	1bef      	subs	r7, r5, r7
  51197e:	0051      	.short	0x0051
  511980:	1c11      	adds	r1, r2, #0
  511982:	0051      	.short	0x0051
  511984:	1c31      	adds	r1, r6, #0
  511986:	0051      	.short	0x0051
  511988:	1c4d      	adds	r5, r1, #1
  51198a:	0051      	.short	0x0051
  51198c:	1c62      	adds	r2, r4, #1
  51198e:	0051      	.short	0x0051
  511990:	1c79      	adds	r1, r7, #1
  511992:	0051      	lsls	r1, r2, #1
  511994:	00511c8a 	.word	0x00511c8a
  511998:	1c9f      	adds	r7, r3, #2
  51199a:	0051      	.short	0x0051
  51199c:	1cb5      	adds	r5, r6, #2
  51199e:	0051      	.short	0x0051
  5119a0:	1515      	asrs	r5, r2, #20
  5119a2:	0051      	lsls	r1, r2, #1
  5119a4:	00511cc6 	.word	0x00511cc6

005119a8 <mesh_app_notify_period_set>:
  5119a8:	b570      	push	{r4, r5, r6, lr}
  5119aa:	460e      	mov	r6, r1
  5119ac:	4601      	mov	r1, r0
  5119ae:	b998      	.short	0xb998
  5119b0:	f64f 75ff 	movw	r5, #65535	; 0xffff
  5119b4:	d10f42ae 	.word	0xd10f42ae
  5119b8:	f5b2 5f88 	cmp.w	r2, #4352	; 0x1100
  5119bc:	4a07d10b 	.word	0x4a07d10b
  5119c0:	4c07      	ldr	r4, [pc, #28]	; (5119e0 <mesh_app_notify_period_set+0x38>)
  5119c2:	6013      	.short	0x6013
  5119c4:	4a07      	ldr	r2, [pc, #28]	; (5119e4 <mesh_app_notify_period_set+0x3c>)
  5119c6:	47a0      	.short	0x47a0
  5119c8:	4b07      	ldr	r3, [pc, #28]	; (5119e8 <mesh_app_notify_period_set+0x40>)
  5119ca:	f8d3      	.short	0xf8d3
  5119cc:	302f      	adds	r0, #47	; 0x2f
  5119ce:	6958      	.short	0x6958
  5119d0:	4b06      	ldr	r3, [pc, #24]	; (5119ec <mesh_app_notify_period_set+0x44>)
  5119d2:	4798      	.short	0x4798
  5119d4:	2001      	movs	r0, #1
  5119d6:	bd70      	.short	0xbd70
  5119d8:	2000      	movs	r0, #0
  5119da:	e7fc      	.short	0xe7fc
  5119dc:	006c      	lsls	r4, r5, #1
  5119de:	0021      	.short	0x0021
  5119e0:	3259      	adds	r2, #89	; 0x59
  5119e2:	000d      	.short	0x000d
  5119e4:	1d0b      	adds	r3, r1, #4
  5119e6:	0051      	.short	0x0051
  5119e8:	fe74 0020 	cdp2	0, 7, cr0, cr4, cr0, {1}
  5119ec:	00511515 	.word	0x00511515

005119f0 <mesh_sensor_server_report_handler>:
  5119f0:	e92d 41f0 	stmdb	sp!, {r4, r5, r6, r7, r8, lr}
  5119f4:	2100460e 	.word	0x2100460e
  5119f8:	4604      	mov	r4, r0
  5119fa:	4617      	mov	r7, r2
  5119fc:	4a0f4698 	.word	0x4a0f4698
  511a00:	4d0f      	ldr	r5, [pc, #60]	; (511a40 <mesh_sensor_server_report_handler+0x50>)
  511a02:	4603      	.short	0x4603
  511a04:	4608      	mov	r0, r1
  511a06:	47a8      	.short	0x47a8
  511a08:	2c72      	cmp	r4, #114	; 0x72
  511a0a:	d015      	.short	0xd015
  511a0c:	2c74      	cmp	r4, #116	; 0x74
  511a0e:	d013      	beq.n	511a38 <mesh_sensor_server_report_handler+0x48>
  511a10:	d10a2c70 	.word	0xd10a2c70
  511a14:	4b0b      	ldr	r3, [pc, #44]	; (511a44 <mesh_sensor_server_report_handler+0x54>)
  511a16:	4798      	.short	0x4798
  511a18:	4b0b      	ldr	r3, [pc, #44]	; (511a48 <mesh_sensor_server_report_handler+0x58>)
  511a1a:	8839      	ldrh	r1, [r7, #0]
  511a1c:	464260d8 	.word	0x464260d8
  511a20:	4630      	mov	r0, r6
  511a22:	4b0a      	.short	0x4b0a
  511a24:	e8bd 41f0 	ldmia.w	sp!, {r4, r5, r6, r7, r8, lr}
  511a28:	21004718 	.word	0x21004718
  511a2c:	462b      	mov	r3, r5
  511a2e:	4a08      	.short	0x4a08
  511a30:	4608      	mov	r0, r1
  511a32:	e8bd      	.short	0xe8bd
  511a34:	41f0      	rors	r0, r6
  511a36:	4718      	.short	0x4718
  511a38:	e8bd 81f0 	ldmia.w	sp!, {r4, r5, r6, r7, r8, pc}
  511a3c:	00511d29 	.word	0x00511d29
  511a40:	3259      	adds	r2, #89	; 0x59
  511a42:	000d      	.short	0x000d
  511a44:	1e7d      	subs	r5, r7, #1
  511a46:	0051      	.short	0x0051
  511a48:	006c      	lsls	r4, r5, #1
  511a4a:	0021      	.short	0x0021
  511a4c:	40fd      	lsrs	r5, r7
  511a4e:	0052      	.short	0x0052
  511a50:	1d54      	adds	r4, r2, #5
  511a52:	0051      	.short	0x0051
  511a54:	6573      	str	r3, [r6, #84]	; 0x54
  511a56:	736e      	.short	0x736e
  511a58:	726f      	strb	r7, [r5, #9]
  511a5a:	7220      	.short	0x7220
  511a5c:	7365      	strb	r5, [r4, #13]
  511a5e:	6174      	.short	0x6174
  511a60:	7472      	strb	r2, [r6, #17]
  511a62:	7420      	.short	0x7420
  511a64:	6d69      	ldr	r1, [r5, #84]	; 0x54
  511a66:	7265      	.short	0x7265
  511a68:	7020      	strb	r0, [r4, #0]
  511a6a:	7265      	.short	0x7265
  511a6c:	6f69      	ldr	r1, [r5, #116]	; 0x74
  511a6e:	3a64      	.short	0x3a64
  511a70:	6425      	str	r5, [r4, #64]	; 0x40
  511a72:	000a      	.short	0x000a
  511a74:	6573      	str	r3, [r6, #84]	; 0x54
  511a76:	736e      	.short	0x736e
  511a78:	726f      	strb	r7, [r5, #9]
  511a7a:	7220      	strb	r0, [r4, #8]
  511a7c:	61747365 	.word	0x61747365
  511a80:	7472      	strb	r2, [r6, #17]
  511a82:	7420      	.short	0x7420
  511a84:	6d69      	ldr	r1, [r5, #84]	; 0x54
  511a86:	7265      	.short	0x7265
  511a88:	253a      	movs	r5, #58	; 0x3a
  511a8a:	0a64      	.short	0x0a64
  511a8c:	5300      	strh	r0, [r0, r4]
  511a8e:	696f      	.short	0x696f
  511a90:	206c      	movs	r0, #108	; 0x6c
  511a92:	6f4d      	.short	0x6f4d
  511a94:	7369      	strb	r1, [r5, #13]
  511a96:	7574      	.short	0x7574
  511a98:	6572      	str	r2, [r6, #84]	; 0x54
  511a9a:	5320      	.short	0x5320
  511a9c:	6e65      	ldr	r5, [r4, #100]	; 0x64
  511a9e:	6f73      	ldr	r3, [r6, #116]	; 0x74
  511aa0:	75500072 	.word	0x75500072
  511aa4:	2062      	movs	r0, #98	; 0x62
  511aa6:	6176      	.short	0x6176
  511aa8:	756c      	strb	r4, [r5, #21]
  511aaa:	3a65      	.short	0x3a65
  511aac:	6425      	str	r5, [r4, #64]	; 0x40
  511aae:	7420      	.short	0x7420
  511ab0:	6d69      	ldr	r1, [r5, #84]	; 0x54
  511ab2:	3a65      	.short	0x3a65
  511ab4:	6425      	str	r5, [r4, #64]	; 0x40
  511ab6:	000a      	.short	0x000a
  511ab8:	6974      	ldr	r4, [r6, #20]
  511aba:	656d      	.short	0x656d
  511abc:	7320      	strb	r0, [r4, #12]
  511abe:	6e69      	.short	0x6e69
  511ac0:	6563      	str	r3, [r4, #84]	; 0x54
  511ac2:	6c20      	.short	0x6c20
  511ac4:	7361      	strb	r1, [r4, #13]
  511ac6:	2074      	movs	r0, #116	; 0x74
  511ac8:	3a627570 	.word	0x3a627570
  511acc:	6425      	str	r5, [r4, #64]	; 0x40
  511ace:	6920      	.short	0x6920
  511ad0:	746e      	strb	r6, [r5, #17]
  511ad2:	7265      	.short	0x7265
  511ad4:	6176      	str	r6, [r6, #20]
  511ad6:	3a6c      	.short	0x3a6c
  511ad8:	6425      	str	r5, [r4, #64]	; 0x40
  511ada:	000a      	.short	0x000a
  511adc:	7550      	strb	r0, [r2, #21]
  511ade:	2062      	.short	0x2062
  511ae0:	656e      	str	r6, [r5, #84]	; 0x54
  511ae2:	6465      	.short	0x6465
  511ae4:	6465      	str	r5, [r4, #68]	; 0x44
  511ae6:	7020      	.short	0x7020
  511ae8:	7265      	strb	r5, [r4, #9]
  511aea:	6f69      	.short	0x6f69
  511aec:	0a64      	lsrs	r4, r4, #9
  511aee:	4e00      	.short	0x4e00
  511af0:	7461      	strb	r1, [r4, #17]
  511af2:	7669      	.short	0x7669
  511af4:	2065      	movs	r0, #101	; 0x65
  511af6:	7563      	.short	0x7563
  511af8:	2072      	movs	r0, #114	; 0x72
  511afa:	6176      	.short	0x6176
  511afc:	756c      	strb	r4, [r5, #21]
  511afe:	3a65      	.short	0x3a65
  511b00:	6425      	str	r5, [r4, #64]	; 0x40
  511b02:	7320      	.short	0x7320
  511b04:	6e65      	ldr	r5, [r4, #100]	; 0x64
  511b06:	3a74      	.short	0x3a74
  511b08:	6425      	str	r5, [r4, #64]	; 0x40
  511b0a:	6420      	.short	0x6420
  511b0c:	6c65      	ldr	r5, [r4, #68]	; 0x44
  511b0e:	6174      	.short	0x6174
  511b10:	253a      	movs	r5, #58	; 0x3a
  511b12:	2f64      	cmp	r7, #100	; 0x64
  511b14:	000a6425 	.word	0x000a6425
  511b18:	7550      	strb	r0, [r2, #21]
  511b1a:	2062      	.short	0x2062
  511b1c:	656e      	str	r6, [r5, #84]	; 0x54
  511b1e:	6465      	.short	0x6465
  511b20:	6465      	str	r5, [r4, #68]	; 0x44
  511b22:	6e20      	.short	0x6e20
  511b24:	7461      	strb	r1, [r4, #17]
  511b26:	7669      	.short	0x7669
  511b28:	2065      	movs	r0, #101	; 0x65
  511b2a:	6176      	.short	0x6176
  511b2c:	756c      	strb	r4, [r5, #21]
  511b2e:	0a65      	.short	0x0a65
  511b30:	4400      	add	r0, r0
  511b32:	6c65      	.short	0x6c65
  511b34:	6174      	str	r4, [r6, #20]
  511b36:	7520      	.short	0x7520
  511b38:	3a70      	subs	r2, #112	; 0x70
  511b3a:	6425      	.short	0x6425
  511b3c:	000a      	movs	r2, r1
  511b3e:	7550      	.short	0x7550
  511b40:	2062      	movs	r0, #98	; 0x62
  511b42:	656e      	.short	0x656e
  511b44:	6465      	str	r5, [r4, #68]	; 0x44
  511b46:	6465      	.short	0x6465
  511b48:	7020      	strb	r0, [r4, #0]
  511b4a:	7265      	strb	r5, [r4, #9]
  511b4c:	6563      	str	r3, [r4, #84]	; 0x54
  511b4e:	746e      	.short	0x746e
  511b50:	6420      	str	r0, [r4, #64]	; 0x40
  511b52:	6c65      	.short	0x6c65
  511b54:	6174      	str	r4, [r6, #20]
  511b56:	7520      	.short	0x7520
  511b58:	3a70      	subs	r2, #112	; 0x70
  511b5a:	6425      	.short	0x6425
  511b5c:	000a      	movs	r2, r1
  511b5e:	6544      	.short	0x6544
  511b60:	746c      	strb	r4, [r5, #17]
  511b62:	2061      	.short	0x2061
  511b64:	6f64      	ldr	r4, [r4, #116]	; 0x74
  511b66:	6e77      	.short	0x6e77
  511b68:	253a      	movs	r5, #58	; 0x3a
  511b6a:	0a64      	.short	0x0a64
  511b6c:	5000      	str	r0, [r0, r0]
  511b6e:	6275      	.short	0x6275
  511b70:	6e20      	ldr	r0, [r4, #96]	; 0x60
  511b72:	6565      	.short	0x6565
  511b74:	6564      	str	r4, [r4, #84]	; 0x54
  511b76:	2064      	.short	0x2064
  511b78:	6570      	str	r0, [r6, #84]	; 0x54
  511b7a:	6372      	.short	0x6372
  511b7c:	6e65      	ldr	r5, [r4, #100]	; 0x64
  511b7e:	2074      	.short	0x2074
  511b80:	6564      	str	r4, [r4, #84]	; 0x54
  511b82:	746c      	.short	0x746c
  511b84:	2061      	movs	r0, #97	; 0x61
  511b86:	6f64      	.short	0x6f64
  511b88:	6e77      	ldr	r7, [r6, #100]	; 0x64
  511b8a:	253a      	.short	0x253a
  511b8c:	0a64      	lsrs	r4, r4, #9
  511b8e:	5000      	.short	0x5000
  511b90:	6275      	str	r5, [r6, #36]	; 0x24
  511b92:	6e20      	.short	0x6e20
  511b94:	6565      	str	r5, [r4, #84]	; 0x54
  511b96:	6564      	.short	0x6564
  511b98:	2064      	movs	r0, #100	; 0x64
  511b9a:	6e69      	.short	0x6e69
  511b9c:	7220      	strb	r0, [r4, #8]
  511b9e:	6e61      	.short	0x6e61
  511ba0:	6567      	str	r7, [r4, #84]	; 0x54
  511ba2:	000a      	.short	0x000a
  511ba4:	7550      	strb	r0, [r2, #21]
  511ba6:	2062      	.short	0x2062
  511ba8:	656e      	str	r6, [r5, #84]	; 0x54
  511baa:	6465      	.short	0x6465
  511bac:	6465      	str	r5, [r4, #68]	; 0x44
  511bae:	6f20      	.short	0x6f20
  511bb0:	7475      	strb	r5, [r6, #17]
  511bb2:	6f20      	.short	0x6f20
  511bb4:	2066      	movs	r0, #102	; 0x66
  511bb6:	6172      	.short	0x6172
  511bb8:	676e      	str	r6, [r5, #116]	; 0x74
  511bba:	0a65      	.short	0x0a65
  511bbc:	6d00      	ldr	r0, [r0, #80]	; 0x50
  511bbe:	7365      	.short	0x7365
  511bc0:	5f68      	ldrsh	r0, [r5, r5]
  511bc2:	6573      	.short	0x6573
  511bc4:	736e      	strb	r6, [r5, #13]
  511bc6:	726f      	.short	0x726f
  511bc8:	735f      	strb	r7, [r3, #13]
  511bca:	7265      	.short	0x7265
  511bcc:	6576      	str	r6, [r6, #84]	; 0x54
  511bce:	5f72      	.short	0x5f72
  511bd0:	6f63      	ldr	r3, [r4, #116]	; 0x74
  511bd2:	666e      	str	r6, [r5, #100]	; 0x64
  511bd4:	635f6769 	.word	0x635f6769
  511bd8:	6168      	str	r0, [r5, #20]
  511bda:	676e      	.short	0x676e
  511bdc:	5f65      	ldrsh	r5, [r4, r5]
  511bde:	6168      	.short	0x6168
  511be0:	646e      	str	r6, [r5, #68]	; 0x44
  511be2:	656c      	.short	0x656c
  511be4:	2072      	movs	r0, #114	; 0x72
  511be6:	736d      	.short	0x736d
  511be8:	3a67      	subs	r2, #103	; 0x67
  511bea:	2520      	.short	0x2520
  511bec:	0a64      	lsrs	r4, r4, #9
  511bee:	6300      	.short	0x6300
  511bf0:	6461      	str	r1, [r4, #68]	; 0x44
  511bf2:	6e65      	.short	0x6e65
  511bf4:	6563      	str	r3, [r4, #84]	; 0x54
  511bf6:	6320      	.short	0x6320
  511bf8:	6168      	str	r0, [r5, #20]
  511bfa:	676e      	.short	0x676e
  511bfc:	6465      	str	r5, [r4, #68]	; 0x44
  511bfe:	7020      	.short	0x7020
  511c00:	6f72      	ldr	r2, [r6, #116]	; 0x74
  511c02:	6570      	.short	0x6570
  511c04:	7472      	strb	r2, [r6, #17]
  511c06:	2079      	.short	0x2079
  511c08:	6469      	str	r1, [r5, #68]	; 0x44
  511c0a:	253a      	.short	0x253a
  511c0c:	3430      	adds	r4, #48	; 0x30
  511c0e:	0a78      	.short	0x0a78
  511c10:	4600      	mov	r0, r0
  511c12:	7361      	.short	0x7361
  511c14:	2074      	movs	r0, #116	; 0x74
  511c16:	6163      	str	r3, [r4, #20]
  511c18:	636e6564 	.word	0x636e6564
  511c1c:	2065      	movs	r0, #101	; 0x65
  511c1e:	6570      	.short	0x6570
  511c20:	6972      	ldr	r2, [r6, #20]
  511c22:	646f      	.short	0x646f
  511c24:	6420      	str	r0, [r4, #64]	; 0x40
  511c26:	7669      	.short	0x7669
  511c28:	7369      	strb	r1, [r5, #13]
  511c2a:	726f      	.short	0x726f
  511c2c:	253a      	movs	r5, #58	; 0x3a
  511c2e:	0a64      	.short	0x0a64
  511c30:	4900      	ldr	r1, [pc, #0]	; (511c34 <mesh_sensor_server_report_handler+0x244>)
  511c32:	2073      	.short	0x2073
  511c34:	7274      	strb	r4, [r6, #9]
  511c36:	6769      	.short	0x6769
  511c38:	6567      	str	r7, [r4, #84]	; 0x54
  511c3a:	2072      	.short	0x2072
  511c3c:	7974      	ldrb	r4, [r6, #5]
  511c3e:	6570      	.short	0x6570
  511c40:	7020      	strb	r0, [r4, #0]
  511c42:	7265      	.short	0x7265
  511c44:	6563      	str	r3, [r4, #84]	; 0x54
  511c46:	746e      	.short	0x746e
  511c48:	253a      	movs	r5, #58	; 0x3a
  511c4a:	0a64      	.short	0x0a64
  511c4c:	5400      	strb	r0, [r0, r0]
  511c4e:	6972      	.short	0x6972
  511c50:	6767      	str	r7, [r4, #116]	; 0x74
  511c52:	7265      	.short	0x7265
  511c54:	6420      	str	r0, [r4, #64]	; 0x40
  511c56:	6c65      	.short	0x6c65
  511c58:	6174      	str	r4, [r6, #20]
  511c5a:	7520      	.short	0x7520
  511c5c:	3a70      	subs	r2, #112	; 0x70
  511c5e:	6425      	.short	0x6425
  511c60:	000a      	movs	r2, r1
  511c62:	7254      	.short	0x7254
  511c64:	6769      	str	r1, [r5, #116]	; 0x74
  511c66:	6567      	.short	0x6567
  511c68:	2072      	movs	r0, #114	; 0x72
  511c6a:	6564      	.short	0x6564
  511c6c:	746c      	strb	r4, [r5, #17]
  511c6e:	2061      	.short	0x2061
  511c70:	6f64      	ldr	r4, [r4, #116]	; 0x74
  511c72:	6e77      	.short	0x6e77
  511c74:	253a      	movs	r5, #58	; 0x3a
  511c76:	0a64      	.short	0x0a64
  511c78:	4d00      	ldr	r5, [pc, #0]	; (511c7c <mesh_sensor_server_report_handler+0x28c>)
  511c7a:	6e69      	.short	0x6e69
  511c7c:	4920      	ldr	r1, [pc, #128]	; (511d00 <mesh_sensor_server_report_handler+0x310>)
  511c7e:	746e      	.short	0x746e
  511c80:	61767265 	.word	0x61767265
  511c84:	3a6c      	subs	r2, #108	; 0x6c
  511c86:	6425      	.short	0x6425
  511c88:	000a      	movs	r2, r1
  511c8a:	6146      	.short	0x6146
  511c8c:	7473      	strb	r3, [r6, #17]
  511c8e:	6320      	.short	0x6320
  511c90:	6461      	str	r1, [r4, #68]	; 0x44
  511c92:	6e65      	.short	0x6e65
  511c94:	6563      	str	r3, [r4, #84]	; 0x54
  511c96:	6c20      	.short	0x6c20
  511c98:	776f      	strb	r7, [r5, #29]
  511c9a:	253a      	.short	0x253a
  511c9c:	0a64      	lsrs	r4, r4, #9
  511c9e:	4600      	.short	0x4600
  511ca0:	7361      	strb	r1, [r4, #13]
  511ca2:	2074      	.short	0x2074
  511ca4:	6163      	str	r3, [r4, #20]
  511ca6:	6564      	.short	0x6564
  511ca8:	636e      	str	r6, [r5, #52]	; 0x34
  511caa:	2065      	.short	0x2065
  511cac:	6968      	ldr	r0, [r5, #20]
  511cae:	6867      	.short	0x6867
  511cb0:	253a      	movs	r5, #58	; 0x3a
  511cb2:	0a64      	.short	0x0a64
  511cb4:	4e00      	ldr	r6, [pc, #0]	; (511cb8 <mesh_sensor_server_report_handler+0x2c8>)
  511cb6:	5256      	.short	0x5256
  511cb8:	4d41      	ldr	r5, [pc, #260]	; (511dc0 <wiced_platform_init+0x1c>)
  511cba:	7720      	.short	0x7720
  511cbc:	6972      	ldr	r2, [r6, #20]
  511cbe:	6574      	.short	0x6574
  511cc0:	203a      	movs	r0, #58	; 0x3a
  511cc2:	6425      	.short	0x6425
  511cc4:	000a      	movs	r2, r1
  511cc6:	6573      	.short	0x6573
  511cc8:	7474      	strb	r4, [r6, #17]
  511cca:	6e69      	.short	0x6e69
  511ccc:	7367      	strb	r7, [r4, #13]
  511cce:	6320      	.short	0x6320
  511cd0:	6168      	str	r0, [r5, #20]
  511cd2:	676e      	.short	0x676e
  511cd4:	6465      	str	r5, [r4, #68]	; 0x44
  511cd6:	2020      	.short	0x2020
  511cd8:	7270      	strb	r0, [r6, #9]
  511cda:	706f      	.short	0x706f
  511cdc:	7265      	strb	r5, [r4, #9]
  511cde:	7974      	.short	0x7974
  511ce0:	6920      	ldr	r0, [r4, #16]
  511ce2:	2064      	.short	0x2064
  511ce4:	666f      	str	r7, [r5, #100]	; 0x64
  511ce6:	7320      	.short	0x7320
  511ce8:	6e65      	ldr	r5, [r4, #100]	; 0x64
  511cea:	6f73      	.short	0x6f73
  511cec:	2072      	movs	r0, #114	; 0x72
  511cee:	203d      	.short	0x203d
  511cf0:	7825      	ldrb	r5, [r4, #0]
  511cf2:	2c20      	.short	0x2c20
  511cf4:	7320      	strb	r0, [r4, #12]
  511cf6:	6e65      	ldr	r5, [r4, #100]	; 0x64
  511cf8:	20726f73 	.word	0x20726f73
  511cfc:	7270      	strb	r0, [r6, #9]
  511cfe:	706f      	.short	0x706f
  511d00:	6920      	ldr	r0, [r4, #16]
  511d02:	2064      	.short	0x2064
  511d04:	203d      	movs	r0, #61	; 0x3d
  511d06:	7825      	.short	0x7825
  511d08:	0a20      	lsrs	r0, r4, #8
  511d0a:	5300      	.short	0x5300
  511d0c:	6e65      	ldr	r5, [r4, #100]	; 0x64
  511d0e:	6f73      	.short	0x6f73
  511d10:	2072      	movs	r0, #114	; 0x72
  511d12:	6164      	.short	0x6164
  511d14:	6174      	str	r4, [r6, #20]
  511d16:	7320      	.short	0x7320
  511d18:	6e65      	ldr	r5, [r4, #100]	; 0x64
  511d1a:	2064      	.short	0x2064
  511d1c:	6570      	str	r0, [r6, #84]	; 0x54
  511d1e:	6972      	.short	0x6972
  511d20:	646f      	str	r7, [r5, #68]	; 0x44
  511d22:	253a      	.short	0x253a
  511d24:	6d64      	ldr	r4, [r4, #84]	; 0x54
  511d26:	0a73      	.short	0x0a73
  511d28:	6d00      	ldr	r0, [r0, #80]	; 0x50
  511d2a:	7365      	.short	0x7365
  511d2c:	5f68      	ldrsh	r0, [r5, r5]
  511d2e:	6573      	.short	0x6573
  511d30:	736e      	strb	r6, [r5, #13]
  511d32:	726f      	.short	0x726f
  511d34:	735f      	strb	r7, [r3, #13]
  511d36:	7265      	.short	0x7265
  511d38:	6576      	str	r6, [r6, #84]	; 0x54
  511d3a:	5f72      	.short	0x5f72
  511d3c:	6572      	str	r2, [r6, #84]	; 0x54
  511d3e:	6f70      	.short	0x6f70
  511d40:	7472      	strb	r2, [r6, #17]
  511d42:	685f      	.short	0x685f
  511d44:	6e61      	ldr	r1, [r4, #100]	; 0x64
  511d46:	6c64      	.short	0x6c64
  511d48:	7265      	strb	r5, [r4, #9]
  511d4a:	6d20      	.short	0x6d20
  511d4c:	6773      	str	r3, [r6, #116]	; 0x74
  511d4e:	203a      	.short	0x203a
  511d50:	6425      	str	r5, [r4, #64]	; 0x40
  511d52:	000a      	.short	0x000a
  511d54:	6e75      	ldr	r5, [r6, #100]	; 0x64
  511d56:	6e6b      	.short	0x6e6b
  511d58:	776f      	strb	r7, [r5, #29]
  511d5a:	0a6e      	.short	0x0a6e
  511d5c:	0000      	movs	r0, r0
	...

00511d60 <wiced_platform_register_button_callback>:
  511d60:	41f0e92d 	.word	0x41f0e92d
  511d64:	461f      	mov	r7, r3
  511d66:	4b0b      	.short	0x4b0b
  511d68:	681b      	ldr	r3, [r3, #0]
  511d6a:	4298      	.short	0x4298
  511d6c:	d20f      	bcs.n	511d8e <wiced_platform_register_button_callback+0x2e>
  511d6e:	0104      	.short	0x0104
  511d70:	4d09      	ldr	r5, [pc, #36]	; (511d98 <wiced_platform_register_button_callback+0x38>)
  511d72:	592b      	.short	0x592b
  511d74:	192e      	adds	r6, r5, r4
  511d76:	7818      	.short	0x7818
  511d78:	4b08      	ldr	r3, [pc, #32]	; (511d9c <wiced_platform_register_button_callback+0x3c>)
  511d7a:	4798      	.short	0x4798
  511d7c:	6871      	ldr	r1, [r6, #4]
  511d7e:	5928      	.short	0x5928
  511d80:	68b2      	ldr	r2, [r6, #8]
  511d82:	7800      	.short	0x7800
  511d84:	4b06      	ldr	r3, [pc, #24]	; (511da0 <wiced_platform_register_button_callback+0x40>)
  511d86:	4339      	.short	0x4339
  511d88:	e8bd 41f0 	ldmia.w	sp!, {r4, r5, r6, r7, r8, lr}
  511d8c:	e8bd4718 	.word	0xe8bd4718
  511d90:	81f0      	strh	r0, [r6, #14]
  511d92:	bf00      	.short	0xbf00
  511d94:	5258      	strh	r0, [r3, r1]
  511d96:	0052      	.short	0x0052
  511d98:	525c      	strh	r4, [r3, r1]
  511d9a:	0052      	.short	0x0052
  511d9c:	3321      	adds	r3, #33	; 0x21
  511d9e:	0008      	.short	0x0008
  511da0:	3271      	adds	r2, #113	; 0x71
  511da2:	0008      	.short	0x0008

00511da4 <wiced_platform_init>:
  511da4:	b5f8      	push	{r3, r4, r5, r6, r7, lr}
  511da6:	4b20      	.short	0x4b20
  511da8:	4d20      	ldr	r5, [pc, #128]	; (511e2c <wiced_platform_init+0x88>)
  511daa:	4e21      	.short	0x4e21
  511dac:	4798      	blx	r3
  511dae:	2400      	.short	0x2400
  511db0:	1963      	adds	r3, r4, r5
  511db2:	5d28      	.short	0x5d28
  511db4:	7859      	ldrb	r1, [r3, #1]
  511db6:	3402      	.short	0x3402
  511db8:	47b0      	blx	r6
  511dba:	2c2c      	.short	0x2c2c
  511dbc:	d1f8      	bne.n	511db0 <wiced_platform_init+0xc>
  511dbe:	4c1d      	.short	0x4c1d
  511dc0:	4e1d      	ldr	r6, [pc, #116]	; (511e38 <wiced_platform_init+0x94>)
  511dc2:	4f1e      	.short	0x4f1e
  511dc4:	2500      	movs	r5, #0
  511dc6:	6833      	.short	0x6833
  511dc8:	42ab      	cmp	r3, r5
  511dca:	f104      	.short	0xf104
  511dcc:	040c      	lsls	r4, r1, #16
  511dce:	d812      	.short	0xd812
  511dd0:	4c1b      	ldr	r4, [pc, #108]	; (511e40 <wiced_platform_init+0x9c>)
  511dd2:	4e1c      	.short	0x4e1c
  511dd4:	4f19      	ldr	r7, [pc, #100]	; (511e3c <wiced_platform_init+0x98>)
  511dd6:	2500      	.short	0x2500
  511dd8:	6833      	ldr	r3, [r6, #0]
  511dda:	42ab      	.short	0x42ab
  511ddc:	f104 0410 	add.w	r4, r4, #16
  511de0:	4c19d811 	.word	0x4c19d811
  511de4:	4e19      	ldr	r6, [pc, #100]	; (511e4c <wiced_platform_init+0xa8>)
  511de6:	4f15      	.short	0x4f15
  511de8:	2500      	movs	r5, #0
  511dea:	6833      	.short	0x6833
  511dec:	42ab      	cmp	r3, r5
  511dee:	f104      	.short	0xf104
  511df0:	040c      	lsls	r4, r1, #16
  511df2:	d810      	.short	0xd810
  511df4:	bdf8      	pop	{r3, r4, r5, r6, r7, pc}
  511df6:	f854      	.short	0xf854
  511df8:	3c0c      	subs	r4, #12
  511dfa:	e954      	.short	0xe954
  511dfc:	1202      	asrs	r2, r0, #8
  511dfe:	7818      	.short	0x7818
  511e00:	47b8      	blx	r7
  511e02:	3501      	.short	0x3501
  511e04:	e7df      	b.n	511dc6 <wiced_platform_init+0x22>
  511e06:	f854      	.short	0xf854
  511e08:	3c10      	subs	r4, #16
  511e0a:	e954      	.short	0xe954
  511e0c:	1203      	asrs	r3, r0, #8
  511e0e:	7818      	.short	0x7818
  511e10:	47b8      	blx	r7
  511e12:	3501      	.short	0x3501
  511e14:	e7e0      	b.n	511dd8 <wiced_platform_init+0x34>
  511e16:	f854      	.short	0xf854
  511e18:	3c0c      	subs	r4, #12
  511e1a:	e954      	.short	0xe954
  511e1c:	1202      	asrs	r2, r0, #8
  511e1e:	7818      	.short	0x7818
  511e20:	47b8      	blx	r7
  511e22:	3501      	.short	0x3501
  511e24:	e7e1      	b.n	511dea <wiced_platform_init+0x46>
  511e26:	bf00      	.short	0xbf00
  511e28:	34dd      	adds	r4, #221	; 0xdd
  511e2a:	0008      	.short	0x0008
  511e2c:	5294      	strh	r4, [r2, r2]
  511e2e:	0052      	.short	0x0052
  511e30:	3471      	adds	r4, #113	; 0x71
  511e32:	0008      	.short	0x0008
  511e34:	5270      	strh	r0, [r6, r1]
  511e36:	0052      	.short	0x0052
  511e38:	526c      	strh	r4, [r5, r1]
  511e3a:	0052      	.short	0x0052
  511e3c:	3271      	adds	r2, #113	; 0x71
  511e3e:	0008      	.short	0x0008
  511e40:	525c      	strh	r4, [r3, r1]
  511e42:	0052      	.short	0x0052
  511e44:	5258      	strh	r0, [r3, r1]
  511e46:	0052      	.short	0x0052
  511e48:	521c      	strh	r4, [r3, r0]
  511e4a:	0052      	.short	0x0052
  511e4c:	5218      	strh	r0, [r3, r0]
  511e4e:	0052      	.short	0x0052

00511e50 <install_libs>:
  511e50:	4770      	bx	lr
	...

00511e54 <application_start_internal>:
  511e54:	4b04b510 	.word	0x4b04b510
  511e58:	4798      	blx	r3
  511e5a:	4b04      	.short	0x4b04
  511e5c:	4798      	blx	r3
  511e5e:	4b04      	.short	0x4b04
  511e60:	e8bd 4010 	ldmia.w	sp!, {r4, lr}
  511e64:	bf004718 	.word	0xbf004718
  511e68:	1da5      	adds	r5, r4, #6
  511e6a:	0051      	.short	0x0051
  511e6c:	2bfd      	cmp	r3, #253	; 0xfd
  511e6e:	0027      	.short	0x0027
  511e70:	2bf9      	cmp	r3, #249	; 0xf9
  511e72:	0051      	.short	0x0051

00511e74 <moisture_init>:
  511e74:	4b00      	ldr	r3, [pc, #0]	; (511e78 <moisture_init+0x4>)
  511e76:	4718      	.short	0x4718
  511e78:	37fd      	adds	r7, #253	; 0xfd
  511e7a:	000d      	.short	0x000d

00511e7c <moisture_read>:
  511e7c:	4b09      	ldr	r3, [pc, #36]	; (511ea4 <moisture_read+0x28>)
  511e7e:	b537      	.short	0xb537
  511e80:	7898      	ldrb	r0, [r3, #2]
  511e82:	4b09      	.short	0x4b09
  511e84:	4d09      	ldr	r5, [pc, #36]	; (511eac <moisture_read+0x30>)
  511e86:	4798      	.short	0x4798
  511e88:	2300      	movs	r3, #0
  511e8a:	4604      	.short	0x4604
  511e8c:	e9cd 0300 	strd	r0, r3, [sp]
  511e90:	46194a07 	.word	0x46194a07
  511e94:	4618      	mov	r0, r3
  511e96:	47a8      	.short	0x47a8
  511e98:	200a      	movs	r0, #10
  511e9a:	fb94      	.short	0xfb94
  511e9c:	f0f0 b003 	b.w	a01ea6 <ds2_xip_end+0x4c3b4a>
  511ea0:	bf00bd30 	.word	0xbf00bd30
  511ea4:	fab8 0020 			; <UNDEFINED> instruction: 0xfab80020
  511ea8:	000d380d 	.word	0x000d380d
  511eac:	3259      	adds	r2, #89	; 0x59
  511eae:	000d      	.short	0x000d
  511eb0:	53c7      	strh	r7, [r0, r7]
  511eb2:	0052      	.short	0x0052

00511eb4 <get_attribute_>:
  511eb4:	b510      	push	{r4, lr}
  511eb6:	4a0a      	.short	0x4a0a
  511eb8:	4603      	mov	r3, r0
  511eba:	2100      	movs	r1, #0
  511ebc:	f832 4031 	ldrh.w	r4, [r2, r1, lsl #3]
  511ec0:	429c      	cmp	r4, r3
  511ec2:	ea4f 00c1 	mov.w	r0, r1, lsl #3
  511ec6:	d101      	bne.n	511ecc <get_attribute_+0x18>
  511ec8:	4410      	add	r0, r2
  511eca:	bd10      	pop	{r4, pc}
  511ecc:	3101      	adds	r1, #1
  511ece:	290b      	cmp	r1, #11
  511ed0:	d1f4      	bne.n	511ebc <get_attribute_+0x8>
  511ed2:	2100      	movs	r1, #0
  511ed4:	4a03      	ldr	r2, [pc, #12]	; (511ee4 <get_attribute_+0x30>)
  511ed6:	4c04      	ldr	r4, [pc, #16]	; (511ee8 <get_attribute_+0x34>)
  511ed8:	4608      	mov	r0, r1
  511eda:	47a0      	blx	r4
  511edc:	2000      	movs	r0, #0
  511ede:	e7f4      	b.n	511eca <get_attribute_+0x16>
  511ee0:	0020fac0 	.word	0x0020fac0
  511ee4:	005253ec 	.word	0x005253ec
  511ee8:	000d3259 	.word	0x000d3259

00511eec <mesh_write_handler>:
  511eec:	880b      	ldrh	r3, [r1, #0]
  511eee:	b5f7      	push	{r0, r1, r2, r4, r5, r6, r7, lr}
  511ef0:	f103 02ff 	add.w	r2, r3, #255	; 0xff
  511ef4:	b292      	uxth	r2, r2
  511ef6:	2a06      	cmp	r2, #6
  511ef8:	4607      	mov	r7, r0
  511efa:	460c      	mov	r4, r1
  511efc:	894d      	ldrh	r5, [r1, #10]
  511efe:	d82c      	bhi.n	511f5a <mesh_write_handler+0x6e>
  511f00:	f64f 7202 	movw	r2, #65282	; 0xff02
  511f04:	4293      	cmp	r3, r2
  511f06:	d003      	beq.n	511f10 <mesh_write_handler+0x24>
  511f08:	f64f 7205 	movw	r2, #65285	; 0xff05
  511f0c:	4293      	cmp	r3, r2
  511f0e:	d11f      	bne.n	511f50 <mesh_write_handler+0x64>
  511f10:	4628      	mov	r0, r5
  511f12:	4b41      	ldr	r3, [pc, #260]	; (512018 <mesh_write_handler+0x12c>)
  511f14:	4798      	blx	r3
  511f16:	8962      	ldrh	r2, [r4, #10]
  511f18:	4605      	mov	r5, r0
  511f1a:	b940      	cbnz	r0, 511f2e <mesh_write_handler+0x42>
  511f1c:	4613      	mov	r3, r2
  511f1e:	4c3f      	ldr	r4, [pc, #252]	; (51201c <mesh_write_handler+0x130>)
  511f20:	4a3f      	ldr	r2, [pc, #252]	; (512020 <mesh_write_handler+0x134>)
  511f22:	4601      	mov	r1, r0
  511f24:	47a0      	blx	r4
  511f26:	2480      	movs	r4, #128	; 0x80
  511f28:	4620      	mov	r0, r4
  511f2a:	b003      	add	sp, #12
  511f2c:	bdf0      	pop	{r4, r5, r6, r7, pc}
  511f2e:	9200      	str	r2, [sp, #0]
  511f30:	4603      	mov	r3, r0
  511f32:	68e1      	ldr	r1, [r4, #12]
  511f34:	4e3b      	ldr	r6, [pc, #236]	; (512024 <mesh_write_handler+0x138>)
  511f36:	2000      	movs	r0, #0
  511f38:	47b0      	blx	r6
  511f3a:	60e5      	str	r5, [r4, #12]
  511f3c:	8160      	strh	r0, [r4, #10]
  511f3e:	4621      	mov	r1, r4
  511f40:	4638      	mov	r0, r7
  511f42:	4b39      	ldr	r3, [pc, #228]	; (512028 <mesh_write_handler+0x13c>)
  511f44:	4798      	blx	r3
  511f46:	4b39      	ldr	r3, [pc, #228]	; (51202c <mesh_write_handler+0x140>)
  511f48:	4604      	mov	r4, r0
  511f4a:	4628      	mov	r0, r5
  511f4c:	4798      	blx	r3
  511f4e:	e7eb      	b.n	511f28 <mesh_write_handler+0x3c>
  511f50:	4b35      	ldr	r3, [pc, #212]	; (512028 <mesh_write_handler+0x13c>)
  511f52:	b003      	add	sp, #12
  511f54:	e8bd 40f0 	ldmia.w	sp!, {r4, r5, r6, r7, lr}
  511f58:	4718      	bx	r3
  511f5a:	2b32      	cmp	r3, #50	; 0x32
  511f5c:	68ce      	ldr	r6, [r1, #12]
  511f5e:	d046      	beq.n	511fee <mesh_write_handler+0x102>
  511f60:	d817      	bhi.n	511f92 <mesh_write_handler+0xa6>
  511f62:	2b2a      	cmp	r3, #42	; 0x2a
  511f64:	d035      	beq.n	511fd2 <mesh_write_handler+0xe6>
  511f66:	2b2d      	cmp	r3, #45	; 0x2d
  511f68:	d14d      	bne.n	512006 <mesh_write_handler+0x11a>
  511f6a:	4618      	mov	r0, r3
  511f6c:	4b30      	ldr	r3, [pc, #192]	; (512030 <mesh_write_handler+0x144>)
  511f6e:	4798      	blx	r3
  511f70:	4604      	mov	r4, r0
  511f72:	2800      	cmp	r0, #0
  511f74:	d0d8      	beq.n	511f28 <mesh_write_handler+0x3c>
  511f76:	8842      	ldrh	r2, [r0, #2]
  511f78:	4b2e      	ldr	r3, [pc, #184]	; (512034 <mesh_write_handler+0x148>)
  511f7a:	6840      	ldr	r0, [r0, #4]
  511f7c:	2100      	movs	r1, #0
  511f7e:	4798      	blx	r3
  511f80:	8862      	ldrh	r2, [r4, #2]
  511f82:	6860      	ldr	r0, [r4, #4]
  511f84:	4b2c      	ldr	r3, [pc, #176]	; (512038 <mesh_write_handler+0x14c>)
  511f86:	42aa      	cmp	r2, r5
  511f88:	bf28      	it	cs
  511f8a:	462a      	movcs	r2, r5
  511f8c:	4631      	mov	r1, r6
  511f8e:	4798      	blx	r3
  511f90:	e037      	b.n	512002 <mesh_write_handler+0x116>
  511f92:	2b52      	cmp	r3, #82	; 0x52
  511f94:	d003      	beq.n	511f9e <mesh_write_handler+0xb2>
  511f96:	2b53      	cmp	r3, #83	; 0x53
  511f98:	d0e7      	beq.n	511f6a <mesh_write_handler+0x7e>
  511f9a:	2b35      	cmp	r3, #53	; 0x35
  511f9c:	e7e4      	b.n	511f68 <mesh_write_handler+0x7c>
  511f9e:	4b27      	ldr	r3, [pc, #156]	; (51203c <mesh_write_handler+0x150>)
  511fa0:	4798      	blx	r3
  511fa2:	4601      	mov	r1, r0
  511fa4:	b920      	cbnz	r0, 511fb0 <mesh_write_handler+0xc4>
  511fa6:	4a26      	ldr	r2, [pc, #152]	; (512040 <mesh_write_handler+0x154>)
  511fa8:	4b1c      	ldr	r3, [pc, #112]	; (51201c <mesh_write_handler+0x130>)
  511faa:	4798      	blx	r3
  511fac:	2482      	movs	r4, #130	; 0x82
  511fae:	e7bb      	b.n	511f28 <mesh_write_handler+0x3c>
  511fb0:	7833      	ldrb	r3, [r6, #0]
  511fb2:	2b04      	cmp	r3, #4
  511fb4:	d125      	bne.n	512002 <mesh_write_handler+0x116>
  511fb6:	2d01      	cmp	r5, #1
  511fb8:	d12c      	bne.n	512014 <mesh_write_handler+0x128>
  511fba:	2100      	movs	r1, #0
  511fbc:	4a21      	ldr	r2, [pc, #132]	; (512044 <mesh_write_handler+0x158>)
  511fbe:	4b17      	ldr	r3, [pc, #92]	; (51201c <mesh_write_handler+0x130>)
  511fc0:	4608      	mov	r0, r1
  511fc2:	4798      	blx	r3
  511fc4:	4b20      	ldr	r3, [pc, #128]	; (512048 <mesh_write_handler+0x15c>)
  511fc6:	2000      	movs	r0, #0
  511fc8:	4798      	blx	r3
  511fca:	4b20      	ldr	r3, [pc, #128]	; (51204c <mesh_write_handler+0x160>)
  511fcc:	2400      	movs	r4, #0
  511fce:	601c      	str	r4, [r3, #0]
  511fd0:	e7aa      	b.n	511f28 <mesh_write_handler+0x3c>
  511fd2:	4b1a      	ldr	r3, [pc, #104]	; (51203c <mesh_write_handler+0x150>)
  511fd4:	4798      	blx	r3
  511fd6:	4604      	mov	r4, r0
  511fd8:	b118      	cbz	r0, 511fe2 <mesh_write_handler+0xf6>
  511fda:	2100      	movs	r1, #0
  511fdc:	4a1c      	ldr	r2, [pc, #112]	; (512050 <mesh_write_handler+0x164>)
  511fde:	4608      	mov	r0, r1
  511fe0:	e7e2      	b.n	511fa8 <mesh_write_handler+0xbc>
  511fe2:	b2eb      	uxtb	r3, r5
  511fe4:	4632      	mov	r2, r6
  511fe6:	4639      	mov	r1, r7
  511fe8:	4d1a      	ldr	r5, [pc, #104]	; (512054 <mesh_write_handler+0x168>)
  511fea:	47a8      	blx	r5
  511fec:	e79c      	b.n	511f28 <mesh_write_handler+0x3c>
  511fee:	4b13      	ldr	r3, [pc, #76]	; (51203c <mesh_write_handler+0x150>)
  511ff0:	4798      	blx	r3
  511ff2:	4601      	mov	r1, r0
  511ff4:	b908      	cbnz	r0, 511ffa <mesh_write_handler+0x10e>
  511ff6:	4a18      	ldr	r2, [pc, #96]	; (512058 <mesh_write_handler+0x16c>)
  511ff8:	e7d6      	b.n	511fa8 <mesh_write_handler+0xbc>
  511ffa:	b2e9      	uxtb	r1, r5
  511ffc:	4630      	mov	r0, r6
  511ffe:	4b17      	ldr	r3, [pc, #92]	; (51205c <mesh_write_handler+0x170>)
  512000:	4798      	blx	r3
  512002:	2400      	movs	r4, #0
  512004:	e790      	b.n	511f28 <mesh_write_handler+0x3c>
  512006:	2100      	movs	r1, #0
  512008:	4a15      	ldr	r2, [pc, #84]	; (512060 <mesh_write_handler+0x174>)
  51200a:	4b04      	ldr	r3, [pc, #16]	; (51201c <mesh_write_handler+0x130>)
  51200c:	4608      	mov	r0, r1
  51200e:	4798      	blx	r3
  512010:	2401      	movs	r4, #1
  512012:	e789      	b.n	511f28 <mesh_write_handler+0x3c>
  512014:	240d      	movs	r4, #13
  512016:	e787      	b.n	511f28 <mesh_write_handler+0x3c>
  512018:	00050d61 	.word	0x00050d61
  51201c:	000d3259 	.word	0x000d3259
  512020:	0052540f 	.word	0x0052540f
  512024:	005186fd 	.word	0x005186fd
  512028:	00514201 	.word	0x00514201
  51202c:	00050d65 	.word	0x00050d65
  512030:	00511eb5 	.word	0x00511eb5
  512034:	00006d41 	.word	0x00006d41
  512038:	00006d31 	.word	0x00006d31
  51203c:	00513405 	.word	0x00513405
  512040:	0052542d 	.word	0x0052542d
  512044:	00525461 	.word	0x00525461
  512048:	00515efd 	.word	0x00515efd
  51204c:	00210040 	.word	0x00210040
  512050:	0052547c 	.word	0x0052547c
  512054:	005178cd 	.word	0x005178cd
  512058:	005254b1 	.word	0x005254b1
  51205c:	00514ca1 	.word	0x00514ca1
  512060:	005254e1 	.word	0x005254e1

00512064 <mesh_hci_trace_cback>:
  512064:	b510      	push	{r4, lr}
  512066:	4601      	mov	r1, r0
  512068:	b958      	cbnz	r0, 512082 <mesh_hci_trace_cback+0x1e>
  51206a:	7813      	ldrb	r3, [r2, #0]
  51206c:	2b10      	cmp	r3, #16
  51206e:	d108      	bne.n	512082 <mesh_hci_trace_cback+0x1e>
  512070:	7893      	ldrb	r3, [r2, #2]
  512072:	b133      	cbz	r3, 512082 <mesh_hci_trace_cback+0x1e>
  512074:	4c03      	ldr	r4, [pc, #12]	; (512084 <mesh_hci_trace_cback+0x20>)
  512076:	4a04      	ldr	r2, [pc, #16]	; (512088 <mesh_hci_trace_cback+0x24>)
  512078:	47a0      	blx	r4
  51207a:	4b04      	ldr	r3, [pc, #16]	; (51208c <mesh_hci_trace_cback+0x28>)
  51207c:	e8bd 4010 	ldmia.w	sp!, {r4, lr}
  512080:	4718      	bx	r3
  512082:	bd10      	pop	{r4, pc}
  512084:	000d3259 	.word	0x000d3259
  512088:	00525504 	.word	0x00525504
  51208c:	000d38ff 	.word	0x000d38ff

00512090 <mesh_ota_firmware_upgrade_send_data_callback>:
  512090:	e92d 43f7 	stmdb	sp!, {r0, r1, r2, r4, r5, r6, r7, r8, r9, lr}
  512094:	4681      	mov	r9, r0
  512096:	461d      	mov	r5, r3
  512098:	2080      	movs	r0, #128	; 0x80
  51209a:	4b18      	ldr	r3, [pc, #96]	; (5120fc <mesh_ota_firmware_upgrade_send_data_callback+0x6c>)
  51209c:	f8df 8078 	ldr.w	r8, [pc, #120]	; 512118 <mesh_ota_firmware_upgrade_send_data_callback+0x88>
  5120a0:	460e      	mov	r6, r1
  5120a2:	4617      	mov	r7, r2
  5120a4:	4798      	blx	r3
  5120a6:	2380      	movs	r3, #128	; 0x80
  5120a8:	4604      	mov	r4, r0
  5120aa:	b938      	cbnz	r0, 5120bc <mesh_ota_firmware_upgrade_send_data_callback+0x2c>
  5120ac:	4a14      	ldr	r2, [pc, #80]	; (512100 <mesh_ota_firmware_upgrade_send_data_callback+0x70>)
  5120ae:	4601      	mov	r1, r0
  5120b0:	47c0      	blx	r8
  5120b2:	2580      	movs	r5, #128	; 0x80
  5120b4:	4628      	mov	r0, r5
  5120b6:	b003      	add	sp, #12
  5120b8:	e8bd 83f0 	ldmia.w	sp!, {r4, r5, r6, r7, r8, r9, pc}
  5120bc:	462a      	mov	r2, r5
  5120be:	9300      	str	r3, [sp, #0]
  5120c0:	990a      	ldr	r1, [sp, #40]	; 0x28
  5120c2:	4d10      	ldr	r5, [pc, #64]	; (512104 <mesh_ota_firmware_upgrade_send_data_callback+0x74>)
  5120c4:	4603      	mov	r3, r0
  5120c6:	2001      	movs	r0, #1
  5120c8:	47a8      	blx	r5
  5120ca:	2100      	movs	r1, #0
  5120cc:	4605      	mov	r5, r0
  5120ce:	4603      	mov	r3, r0
  5120d0:	4a0d      	ldr	r2, [pc, #52]	; (512108 <mesh_ota_firmware_upgrade_send_data_callback+0x78>)
  5120d2:	4608      	mov	r0, r1
  5120d4:	47c0      	blx	r8
  5120d6:	b17d      	cbz	r5, 5120f8 <mesh_ota_firmware_upgrade_send_data_callback+0x68>
  5120d8:	4623      	mov	r3, r4
  5120da:	462a      	mov	r2, r5
  5120dc:	4639      	mov	r1, r7
  5120de:	4630      	mov	r0, r6
  5120e0:	f1b9 0f00 	cmp.w	r9, #0
  5120e4:	d006      	beq.n	5120f4 <mesh_ota_firmware_upgrade_send_data_callback+0x64>
  5120e6:	4d09      	ldr	r5, [pc, #36]	; (51210c <mesh_ota_firmware_upgrade_send_data_callback+0x7c>)
  5120e8:	47a8      	blx	r5
  5120ea:	4605      	mov	r5, r0
  5120ec:	4620      	mov	r0, r4
  5120ee:	4b08      	ldr	r3, [pc, #32]	; (512110 <mesh_ota_firmware_upgrade_send_data_callback+0x80>)
  5120f0:	4798      	blx	r3
  5120f2:	e7df      	b.n	5120b4 <mesh_ota_firmware_upgrade_send_data_callback+0x24>
  5120f4:	4d07      	ldr	r5, [pc, #28]	; (512114 <mesh_ota_firmware_upgrade_send_data_callback+0x84>)
  5120f6:	e7f7      	b.n	5120e8 <mesh_ota_firmware_upgrade_send_data_callback+0x58>
  5120f8:	2581      	movs	r5, #129	; 0x81
  5120fa:	e7f7      	b.n	5120ec <mesh_ota_firmware_upgrade_send_data_callback+0x5c>
  5120fc:	00050d61 	.word	0x00050d61
  512100:	00525530 	.word	0x00525530
  512104:	005186fd 	.word	0x005186fd
  512108:	0052556d 	.word	0x0052556d
  51210c:	000d2993 	.word	0x000d2993
  512110:	00050d65 	.word	0x00050d65
  512114:	000d2981 	.word	0x000d2981
  512118:	000d3259 	.word	0x000d3259

0051211c <mesh_app_gatt_init>:
  51211c:	b510      	push	{r4, lr}
  51211e:	4b05      	ldr	r3, [pc, #20]	; (512134 <mesh_app_gatt_init+0x18>)
  512120:	4805      	ldr	r0, [pc, #20]	; (512138 <mesh_app_gatt_init+0x1c>)
  512122:	4798      	blx	r3
  512124:	2208      	movs	r2, #8
  512126:	2100      	movs	r1, #0
  512128:	4804      	ldr	r0, [pc, #16]	; (51213c <mesh_app_gatt_init+0x20>)
  51212a:	4b05      	ldr	r3, [pc, #20]	; (512140 <mesh_app_gatt_init+0x24>)
  51212c:	e8bd 4010 	ldmia.w	sp!, {r4, lr}
  512130:	4718      	bx	r3
  512132:	bf00      	nop
  512134:	0008308f 	.word	0x0008308f
  512138:	00512335 	.word	0x00512335
  51213c:	002103bc 	.word	0x002103bc
  512140:	00006d41 	.word	0x00006d41

00512144 <mesh_app_gatt_db_init>:
  512144:	b570      	push	{r4, r5, r6, lr}
  512146:	4b0c      	ldr	r3, [pc, #48]	; (512178 <mesh_app_gatt_db_init+0x34>)
  512148:	4c0c      	ldr	r4, [pc, #48]	; (51217c <mesh_app_gatt_db_init+0x38>)
  51214a:	b968      	cbnz	r0, 512168 <mesh_app_gatt_db_init+0x24>
  51214c:	f44f 718c 	mov.w	r1, #280	; 0x118
  512150:	480b      	ldr	r0, [pc, #44]	; (512180 <mesh_app_gatt_db_init+0x3c>)
  512152:	4798      	blx	r3
  512154:	4a0b      	ldr	r2, [pc, #44]	; (512184 <mesh_app_gatt_db_init+0x40>)
  512156:	4603      	mov	r3, r0
  512158:	2100      	movs	r1, #0
  51215a:	4608      	mov	r0, r1
  51215c:	47a0      	blx	r4
  51215e:	480a      	ldr	r0, [pc, #40]	; (512188 <mesh_app_gatt_db_init+0x44>)
  512160:	4b0a      	ldr	r3, [pc, #40]	; (51218c <mesh_app_gatt_db_init+0x48>)
  512162:	e8bd 4070 	ldmia.w	sp!, {r4, r5, r6, lr}
  512166:	4718      	bx	r3
  512168:	f44f 719d 	mov.w	r1, #314	; 0x13a
  51216c:	4808      	ldr	r0, [pc, #32]	; (512190 <mesh_app_gatt_db_init+0x4c>)
  51216e:	4798      	blx	r3
  512170:	4a08      	ldr	r2, [pc, #32]	; (512194 <mesh_app_gatt_db_init+0x50>)
  512172:	4603      	mov	r3, r0
  512174:	e7f0      	b.n	512158 <mesh_app_gatt_db_init+0x14>
  512176:	bf00      	nop
  512178:	000d29c3 	.word	0x000d29c3
  51217c:	000d3259 	.word	0x000d3259
  512180:	0020fb18 	.word	0x0020fb18
  512184:	005255ac 	.word	0x005255ac
  512188:	00512065 	.word	0x00512065
  51218c:	00082d6b 	.word	0x00082d6b
  512190:	0020fc30 	.word	0x0020fc30
  512194:	005255e4 	.word	0x005255e4

00512198 <mesh_cfm_handler>:
  512198:	f101 03ff 	add.w	r3, r1, #255	; 0xff
  51219c:	b29b      	uxth	r3, r3
  51219e:	2b06      	cmp	r3, #6
  5121a0:	d801      	bhi.n	5121a6 <mesh_cfm_handler+0xe>
  5121a2:	4b02      	ldr	r3, [pc, #8]	; (5121ac <mesh_cfm_handler+0x14>)
  5121a4:	4718      	bx	r3
  5121a6:	2001      	movs	r0, #1
  5121a8:	4770      	bx	lr
  5121aa:	bf00      	nop
  5121ac:	00513f45 	.word	0x00513f45

005121b0 <mesh_gatts_req_cb>:
  5121b0:	b57f      	push	{r0, r1, r2, r3, r4, r5, r6, lr}
  5121b2:	7883      	ldrb	r3, [r0, #2]
  5121b4:	3b01      	subs	r3, #1
  5121b6:	4604      	mov	r4, r0
  5121b8:	2b05      	cmp	r3, #5
  5121ba:	f200 809c 	bhi.w	5122f6 <mesh_gatts_req_cb+0x146>
  5121be:	e8df f003 	tbb	[pc, r3]
  5121c2:	4703      	.short	0x4703
  5121c4:	958b6d4c 	.word	0x958b6d4c
  5121c8:	8880      	ldrh	r0, [r0, #4]
  5121ca:	f100 03ff 	add.w	r3, r0, #255	; 0xff
  5121ce:	b29b      	uxth	r3, r3
  5121d0:	2b06      	cmp	r3, #6
  5121d2:	d805      	bhi.n	5121e0 <mesh_gatts_req_cb+0x30>
  5121d4:	1d21      	adds	r1, r4, #4
  5121d6:	8820      	ldrh	r0, [r4, #0]
  5121d8:	4b48      	ldr	r3, [pc, #288]	; (5122fc <mesh_gatts_req_cb+0x14c>)
  5121da:	4798      	blx	r3
  5121dc:	4604      	mov	r4, r0
  5121de:	e034      	b.n	51224a <mesh_gatts_req_cb+0x9a>
  5121e0:	4b47      	ldr	r3, [pc, #284]	; (512300 <mesh_gatts_req_cb+0x150>)
  5121e2:	4798      	blx	r3
  5121e4:	4605      	mov	r5, r0
  5121e6:	2800      	cmp	r0, #0
  5121e8:	d02e      	beq.n	512248 <mesh_gatts_req_cb+0x98>
  5121ea:	88a2      	ldrh	r2, [r4, #4]
  5121ec:	8843      	ldrh	r3, [r0, #2]
  5121ee:	2a16      	cmp	r2, #22
  5121f0:	d119      	bne.n	512226 <mesh_gatts_req_cb+0x76>
  5121f2:	b92b      	cbnz	r3, 512200 <mesh_gatts_req_cb+0x50>
  5121f4:	4b43      	ldr	r3, [pc, #268]	; (512304 <mesh_gatts_req_cb+0x154>)
  5121f6:	6818      	ldr	r0, [r3, #0]
  5121f8:	6068      	str	r0, [r5, #4]
  5121fa:	4b43      	ldr	r3, [pc, #268]	; (512308 <mesh_gatts_req_cb+0x158>)
  5121fc:	4798      	blx	r3
  5121fe:	8068      	strh	r0, [r5, #2]
  512200:	886a      	ldrh	r2, [r5, #2]
  512202:	88e1      	ldrh	r1, [r4, #6]
  512204:	428a      	cmp	r2, r1
  512206:	d90c      	bls.n	512222 <mesh_gatts_req_cb+0x72>
  512208:	b15a      	cbz	r2, 512222 <mesh_gatts_req_cb+0x72>
  51220a:	68e0      	ldr	r0, [r4, #12]
  51220c:	8803      	ldrh	r3, [r0, #0]
  51220e:	1a52      	subs	r2, r2, r1
  512210:	429a      	cmp	r2, r3
  512212:	bfa8      	it	ge
  512214:	461a      	movge	r2, r3
  512216:	686b      	ldr	r3, [r5, #4]
  512218:	8002      	strh	r2, [r0, #0]
  51221a:	4419      	add	r1, r3
  51221c:	6920      	ldr	r0, [r4, #16]
  51221e:	4b3b      	ldr	r3, [pc, #236]	; (51230c <mesh_gatts_req_cb+0x15c>)
  512220:	4798      	blx	r3
  512222:	2400      	movs	r4, #0
  512224:	e011      	b.n	51224a <mesh_gatts_req_cb+0x9a>
  512226:	2a18      	cmp	r2, #24
  512228:	d1ea      	bne.n	512200 <mesh_gatts_req_cb+0x50>
  51222a:	2b00      	cmp	r3, #0
  51222c:	d1e8      	bne.n	512200 <mesh_gatts_req_cb+0x50>
  51222e:	4b35      	ldr	r3, [pc, #212]	; (512304 <mesh_gatts_req_cb+0x154>)
  512230:	f8b3 305c 	ldrh.w	r3, [r3, #92]	; 0x5c
  512234:	f88d 3000 	strb.w	r3, [sp]
  512238:	0a1b      	lsrs	r3, r3, #8
  51223a:	f88d 3001 	strb.w	r3, [sp, #1]
  51223e:	2302      	movs	r3, #2
  512240:	f8c0 d004 	str.w	sp, [r0, #4]
  512244:	8043      	strh	r3, [r0, #2]
  512246:	e7db      	b.n	512200 <mesh_gatts_req_cb+0x50>
  512248:	2401      	movs	r4, #1
  51224a:	4620      	mov	r0, r4
  51224c:	b004      	add	sp, #16
  51224e:	bd70      	pop	{r4, r5, r6, pc}
  512250:	1d01      	adds	r1, r0, #4
  512252:	4b2f      	ldr	r3, [pc, #188]	; (512310 <mesh_gatts_req_cb+0x160>)
  512254:	8800      	ldrh	r0, [r0, #0]
  512256:	4798      	blx	r3
  512258:	e7c0      	b.n	5121dc <mesh_gatts_req_cb+0x2c>
  51225a:	4e2e      	ldr	r6, [pc, #184]	; (512314 <mesh_gatts_req_cb+0x164>)
  51225c:	6833      	ldr	r3, [r6, #0]
  51225e:	4635      	mov	r5, r6
  512260:	b13b      	cbz	r3, 512272 <mesh_gatts_req_cb+0xc2>
  512262:	89a3      	ldrh	r3, [r4, #12]
  512264:	89e2      	ldrh	r2, [r4, #14]
  512266:	1899      	adds	r1, r3, r2
  512268:	f5b1 7f00 	cmp.w	r1, #512	; 0x200
  51226c:	dd0a      	ble.n	512284 <mesh_gatts_req_cb+0xd4>
  51226e:	2411      	movs	r4, #17
  512270:	e7eb      	b.n	51224a <mesh_gatts_req_cb+0x9a>
  512272:	f44f 7000 	mov.w	r0, #512	; 0x200
  512276:	4b28      	ldr	r3, [pc, #160]	; (512318 <mesh_gatts_req_cb+0x168>)
  512278:	4798      	blx	r3
  51227a:	6030      	str	r0, [r6, #0]
  51227c:	2800      	cmp	r0, #0
  51227e:	d1f0      	bne.n	512262 <mesh_gatts_req_cb+0xb2>
  512280:	2409      	movs	r4, #9
  512282:	e7e2      	b.n	51224a <mesh_gatts_req_cb+0x9a>
  512284:	6828      	ldr	r0, [r5, #0]
  512286:	88a1      	ldrh	r1, [r4, #4]
  512288:	80e9      	strh	r1, [r5, #6]
  51228a:	4418      	add	r0, r3
  51228c:	6921      	ldr	r1, [r4, #16]
  51228e:	4b1f      	ldr	r3, [pc, #124]	; (51230c <mesh_gatts_req_cb+0x15c>)
  512290:	4798      	blx	r3
  512292:	89a3      	ldrh	r3, [r4, #12]
  512294:	89e2      	ldrh	r2, [r4, #14]
  512296:	4413      	add	r3, r2
  512298:	80ab      	strh	r3, [r5, #4]
  51229a:	e7c2      	b.n	512222 <mesh_gatts_req_cb+0x72>
  51229c:	4d1d      	ldr	r5, [pc, #116]	; (512314 <mesh_gatts_req_cb+0x164>)
  51229e:	682b      	ldr	r3, [r5, #0]
  5122a0:	2b00      	cmp	r3, #0
  5122a2:	d0e4      	beq.n	51226e <mesh_gatts_req_cb+0xbe>
  5122a4:	8804      	ldrh	r4, [r0, #0]
  5122a6:	4b1d      	ldr	r3, [pc, #116]	; (51231c <mesh_gatts_req_cb+0x16c>)
  5122a8:	2210      	movs	r2, #16
  5122aa:	2100      	movs	r1, #0
  5122ac:	4668      	mov	r0, sp
  5122ae:	4798      	blx	r3
  5122b0:	88eb      	ldrh	r3, [r5, #6]
  5122b2:	f8ad 3000 	strh.w	r3, [sp]
  5122b6:	682b      	ldr	r3, [r5, #0]
  5122b8:	9303      	str	r3, [sp, #12]
  5122ba:	88ab      	ldrh	r3, [r5, #4]
  5122bc:	f8ad 300a 	strh.w	r3, [sp, #10]
  5122c0:	2600      	movs	r6, #0
  5122c2:	4669      	mov	r1, sp
  5122c4:	4620      	mov	r0, r4
  5122c6:	4b12      	ldr	r3, [pc, #72]	; (512310 <mesh_gatts_req_cb+0x160>)
  5122c8:	9601      	str	r6, [sp, #4]
  5122ca:	4798      	blx	r3
  5122cc:	4b14      	ldr	r3, [pc, #80]	; (512320 <mesh_gatts_req_cb+0x170>)
  5122ce:	4604      	mov	r4, r0
  5122d0:	6828      	ldr	r0, [r5, #0]
  5122d2:	4798      	blx	r3
  5122d4:	602e      	str	r6, [r5, #0]
  5122d6:	e7b8      	b.n	51224a <mesh_gatts_req_cb+0x9a>
  5122d8:	2100      	movs	r1, #0
  5122da:	8883      	ldrh	r3, [r0, #4]
  5122dc:	4a11      	ldr	r2, [pc, #68]	; (512324 <mesh_gatts_req_cb+0x174>)
  5122de:	4d12      	ldr	r5, [pc, #72]	; (512328 <mesh_gatts_req_cb+0x178>)
  5122e0:	4608      	mov	r0, r1
  5122e2:	47a8      	blx	r5
  5122e4:	88a0      	ldrh	r0, [r4, #4]
  5122e6:	4b11      	ldr	r3, [pc, #68]	; (51232c <mesh_gatts_req_cb+0x17c>)
  5122e8:	4798      	blx	r3
  5122ea:	e79a      	b.n	512222 <mesh_gatts_req_cb+0x72>
  5122ec:	8881      	ldrh	r1, [r0, #4]
  5122ee:	4b10      	ldr	r3, [pc, #64]	; (512330 <mesh_gatts_req_cb+0x180>)
  5122f0:	8800      	ldrh	r0, [r0, #0]
  5122f2:	4798      	blx	r3
  5122f4:	e772      	b.n	5121dc <mesh_gatts_req_cb+0x2c>
  5122f6:	2404      	movs	r4, #4
  5122f8:	e7a7      	b.n	51224a <mesh_gatts_req_cb+0x9a>
  5122fa:	bf00      	nop
  5122fc:	00513ef5 	.word	0x00513ef5
  512300:	00511eb5 	.word	0x00511eb5
  512304:	0020fd94 	.word	0x0020fd94
  512308:	00055ad3 	.word	0x00055ad3
  51230c:	00006d31 	.word	0x00006d31
  512310:	00511eed 	.word	0x00511eed
  512314:	002103bc 	.word	0x002103bc
  512318:	00050d61 	.word	0x00050d61
  51231c:	00006d41 	.word	0x00006d41
  512320:	00050d65 	.word	0x00050d65
  512324:	0052561a 	.word	0x0052561a
  512328:	000d3259 	.word	0x000d3259
  51232c:	00514e65 	.word	0x00514e65
  512330:	00512199 	.word	0x00512199

00512334 <mesh_gatts_callback>:
  512334:	b570      	push	{r4, r5, r6, lr}
  512336:	460c      	mov	r4, r1
  512338:	b088      	sub	sp, #32
  51233a:	4605      	mov	r5, r0
  51233c:	b118      	cbz	r0, 512346 <mesh_gatts_callback+0x12>
  51233e:	2804      	cmp	r0, #4
  512340:	d035      	beq.n	5123ae <mesh_gatts_callback+0x7a>
  512342:	2004      	movs	r0, #4
  512344:	e02f      	b.n	5123a6 <mesh_gatts_callback+0x72>
  512346:	4b1c      	ldr	r3, [pc, #112]	; (5123b8 <mesh_gatts_callback+0x84>)
  512348:	688e      	ldr	r6, [r1, #8]
  51234a:	4798      	blx	r3
  51234c:	89a3      	ldrh	r3, [r4, #12]
  51234e:	9302      	str	r3, [sp, #8]
  512350:	88e3      	ldrh	r3, [r4, #6]
  512352:	4a1a      	ldr	r2, [pc, #104]	; (5123bc <mesh_gatts_callback+0x88>)
  512354:	e9cd 0300 	strd	r0, r3, [sp]
  512358:	4629      	mov	r1, r5
  51235a:	4633      	mov	r3, r6
  51235c:	4628      	mov	r0, r5
  51235e:	4d18      	ldr	r5, [pc, #96]	; (5123c0 <mesh_gatts_callback+0x8c>)
  512360:	47a8      	blx	r5
  512362:	4b18      	ldr	r3, [pc, #96]	; (5123c4 <mesh_gatts_callback+0x90>)
  512364:	689b      	ldr	r3, [r3, #8]
  512366:	b10b      	cbz	r3, 51236c <mesh_gatts_callback+0x38>
  512368:	4620      	mov	r0, r4
  51236a:	4798      	blx	r3
  51236c:	68a3      	ldr	r3, [r4, #8]
  51236e:	4e16      	ldr	r6, [pc, #88]	; (5123c8 <mesh_gatts_callback+0x94>)
  512370:	b103      	cbz	r3, 512374 <mesh_gatts_callback+0x40>
  512372:	88e3      	ldrh	r3, [r4, #6]
  512374:	8033      	strh	r3, [r6, #0]
  512376:	8830      	ldrh	r0, [r6, #0]
  512378:	b9b8      	cbnz	r0, 5123aa <mesh_gatts_callback+0x76>
  51237a:	89a2      	ldrh	r2, [r4, #12]
  51237c:	4d13      	ldr	r5, [pc, #76]	; (5123cc <mesh_gatts_callback+0x98>)
  51237e:	2314      	movs	r3, #20
  512380:	2100      	movs	r1, #0
  512382:	47a8      	blx	r5
  512384:	8833      	ldrh	r3, [r6, #0]
  512386:	2500      	movs	r5, #0
  512388:	a808      	add	r0, sp, #32
  51238a:	1b5a      	subs	r2, r3, r5
  51238c:	9505      	str	r5, [sp, #20]
  51238e:	f8ad 3016 	strh.w	r3, [sp, #22]
  512392:	6823      	ldr	r3, [r4, #0]
  512394:	f840 3d10 	str.w	r3, [r0, #-16]!
  512398:	bf18      	it	ne
  51239a:	2201      	movne	r2, #1
  51239c:	9507      	str	r5, [sp, #28]
  51239e:	4b0c      	ldr	r3, [pc, #48]	; (5123d0 <mesh_gatts_callback+0x9c>)
  5123a0:	9206      	str	r2, [sp, #24]
  5123a2:	4798      	blx	r3
  5123a4:	4628      	mov	r0, r5
  5123a6:	b008      	add	sp, #32
  5123a8:	bd70      	pop	{r4, r5, r6, pc}
  5123aa:	2200      	movs	r2, #0
  5123ac:	e7e6      	b.n	51237c <mesh_gatts_callback+0x48>
  5123ae:	4608      	mov	r0, r1
  5123b0:	4b08      	ldr	r3, [pc, #32]	; (5123d4 <mesh_gatts_callback+0xa0>)
  5123b2:	4798      	blx	r3
  5123b4:	e7f7      	b.n	5123a6 <mesh_gatts_callback+0x72>
  5123b6:	bf00      	nop
  5123b8:	00513405 	.word	0x00513405
  5123bc:	00525647 	.word	0x00525647
  5123c0:	000d3259 	.word	0x000d3259
  5123c4:	0020feb0 	.word	0x0020feb0
  5123c8:	0020fff0 	.word	0x0020fff0
  5123cc:	00514eb9 	.word	0x00514eb9
  5123d0:	00513ed5 	.word	0x00513ed5
  5123d4:	005121b1 	.word	0x005121b1

005123d8 <mesh_app_gatt_is_connected>:
  5123d8:	4b02      	ldr	r3, [pc, #8]	; (5123e4 <mesh_app_gatt_is_connected+0xc>)
  5123da:	8818      	ldrh	r0, [r3, #0]
  5123dc:	3000      	adds	r0, #0
  5123de:	bf18      	it	ne
  5123e0:	2001      	movne	r0, #1
  5123e2:	4770      	bx	lr
  5123e4:	0020fff0 	.word	0x0020fff0

005123e8 <mesh_app_proxy_gatt_send_cb>:
  5123e8:	e92d 47f0 	stmdb	sp!, {r4, r5, r6, r7, r8, r9, sl, lr}
  5123ec:	4606      	mov	r6, r0
  5123ee:	4617      	mov	r7, r2
  5123f0:	461d      	mov	r5, r3
  5123f2:	4689      	mov	r9, r1
  5123f4:	b1f1      	cbz	r1, 512434 <mesh_app_proxy_gatt_send_cb+0x4c>
  5123f6:	fa1f f883 	uxth.w	r8, r3
  5123fa:	f108 0007 	add.w	r0, r8, #7
  5123fe:	b280      	uxth	r0, r0
  512400:	4b17      	ldr	r3, [pc, #92]	; (512460 <mesh_app_proxy_gatt_send_cb+0x78>)
  512402:	4798      	blx	r3
  512404:	4604      	mov	r4, r0
  512406:	b340      	cbz	r0, 51245a <mesh_app_proxy_gatt_send_cb+0x72>
  512408:	2300      	movs	r3, #0
  51240a:	f8a0 9000 	strh.w	r9, [r0]
  51240e:	8043      	strh	r3, [r0, #2]
  512410:	f8a0 8004 	strh.w	r8, [r0, #4]
  512414:	7183      	strb	r3, [r0, #6]
  512416:	462a      	mov	r2, r5
  512418:	4639      	mov	r1, r7
  51241a:	4b12      	ldr	r3, [pc, #72]	; (512464 <mesh_app_proxy_gatt_send_cb+0x7c>)
  51241c:	3007      	adds	r0, #7
  51241e:	4798      	blx	r3
  512420:	4622      	mov	r2, r4
  512422:	b2b0      	uxth	r0, r6
  512424:	4b10      	ldr	r3, [pc, #64]	; (512468 <mesh_app_proxy_gatt_send_cb+0x80>)
  512426:	2101      	movs	r1, #1
  512428:	4798      	blx	r3
  51242a:	4620      	mov	r0, r4
  51242c:	4b0f      	ldr	r3, [pc, #60]	; (51246c <mesh_app_proxy_gatt_send_cb+0x84>)
  51242e:	e8bd 47f0 	ldmia.w	sp!, {r4, r5, r6, r7, r8, r9, sl, lr}
  512432:	4718      	bx	r3
  512434:	4b0e      	ldr	r3, [pc, #56]	; (512470 <mesh_app_proxy_gatt_send_cb+0x88>)
  512436:	7898      	ldrb	r0, [r3, #2]
  512438:	f010 0001 	ands.w	r0, r0, #1
  51243c:	d008      	beq.n	512450 <mesh_app_proxy_gatt_send_cb+0x68>
  51243e:	4c0d      	ldr	r4, [pc, #52]	; (512474 <mesh_app_proxy_gatt_send_cb+0x8c>)
  512440:	4613      	mov	r3, r2
  512442:	b2b0      	uxth	r0, r6
  512444:	b2aa      	uxth	r2, r5
  512446:	46a4      	mov	ip, r4
  512448:	2134      	movs	r1, #52	; 0x34
  51244a:	e8bd 47f0 	ldmia.w	sp!, {r4, r5, r6, r7, r8, r9, sl, lr}
  51244e:	4760      	bx	ip
  512450:	4a09      	ldr	r2, [pc, #36]	; (512478 <mesh_app_proxy_gatt_send_cb+0x90>)
  512452:	4b0a      	ldr	r3, [pc, #40]	; (51247c <mesh_app_proxy_gatt_send_cb+0x94>)
  512454:	e8bd 47f0 	ldmia.w	sp!, {r4, r5, r6, r7, r8, r9, sl, lr}
  512458:	4718      	bx	r3
  51245a:	e8bd 87f0 	ldmia.w	sp!, {r4, r5, r6, r7, r8, r9, sl, pc}
  51245e:	bf00      	nop
  512460:	00050d61 	.word	0x00050d61
  512464:	00006d31 	.word	0x00006d31
  512468:	000d29f1 	.word	0x000d29f1
  51246c:	00050d65 	.word	0x00050d65
  512470:	0020fff0 	.word	0x0020fff0
  512474:	000d2993 	.word	0x000d2993
  512478:	005256b0 	.word	0x005256b0
  51247c:	000d3259 	.word	0x000d3259

00512480 <mesh_application_proc_rx_cmd>:
  512480:	b5f8      	push	{r3, r4, r5, r6, r7, lr}
  512482:	4604      	mov	r4, r0
  512484:	b148      	cbz	r0, 51249a <mesh_application_proc_rx_cmd+0x1a>
  512486:	2903      	cmp	r1, #3
  512488:	d809      	bhi.n	51249e <mesh_application_proc_rx_cmd+0x1e>
  51248a:	2100      	movs	r1, #0
  51248c:	4a0d      	ldr	r2, [pc, #52]	; (5124c4 <mesh_application_proc_rx_cmd+0x44>)
  51248e:	4b0e      	ldr	r3, [pc, #56]	; (5124c8 <mesh_application_proc_rx_cmd+0x48>)
  512490:	4608      	mov	r0, r1
  512492:	4798      	blx	r3
  512494:	4620      	mov	r0, r4
  512496:	4b0d      	ldr	r3, [pc, #52]	; (5124cc <mesh_application_proc_rx_cmd+0x4c>)
  512498:	4798      	blx	r3
  51249a:	2000      	movs	r0, #0
  51249c:	bdf8      	pop	{r3, r4, r5, r6, r7, pc}
  51249e:	8847      	ldrh	r7, [r0, #2]
  5124a0:	8805      	ldrh	r5, [r0, #0]
  5124a2:	4b0b      	ldr	r3, [pc, #44]	; (5124d0 <mesh_application_proc_rx_cmd+0x50>)
  5124a4:	1d06      	adds	r6, r0, #4
  5124a6:	463a      	mov	r2, r7
  5124a8:	4631      	mov	r1, r6
  5124aa:	4628      	mov	r0, r5
  5124ac:	4798      	blx	r3
  5124ae:	2800      	cmp	r0, #0
  5124b0:	d0f0      	beq.n	512494 <mesh_application_proc_rx_cmd+0x14>
  5124b2:	4b08      	ldr	r3, [pc, #32]	; (5124d4 <mesh_application_proc_rx_cmd+0x54>)
  5124b4:	695b      	ldr	r3, [r3, #20]
  5124b6:	2b00      	cmp	r3, #0
  5124b8:	d0ec      	beq.n	512494 <mesh_application_proc_rx_cmd+0x14>
  5124ba:	463a      	mov	r2, r7
  5124bc:	4631      	mov	r1, r6
  5124be:	4628      	mov	r0, r5
  5124c0:	4798      	blx	r3
  5124c2:	e7e7      	b.n	512494 <mesh_application_proc_rx_cmd+0x14>
  5124c4:	005256d7 	.word	0x005256d7
  5124c8:	000d3259 	.word	0x000d3259
  5124cc:	0003a265 	.word	0x0003a265
  5124d0:	00515a9d 	.word	0x00515a9d
  5124d4:	0020feb0 	.word	0x0020feb0

005124d8 <mesh_hci_trace_cback>:
  5124d8:	b510      	push	{r4, lr}
  5124da:	4601      	mov	r1, r0
  5124dc:	b958      	cbnz	r0, 5124f6 <mesh_hci_trace_cback+0x1e>
  5124de:	7813      	ldrb	r3, [r2, #0]
  5124e0:	2b10      	cmp	r3, #16
  5124e2:	d108      	bne.n	5124f6 <mesh_hci_trace_cback+0x1e>
  5124e4:	7893      	ldrb	r3, [r2, #2]
  5124e6:	b133      	cbz	r3, 5124f6 <mesh_hci_trace_cback+0x1e>
  5124e8:	4c03      	ldr	r4, [pc, #12]	; (5124f8 <mesh_hci_trace_cback+0x20>)
  5124ea:	4a04      	ldr	r2, [pc, #16]	; (5124fc <mesh_hci_trace_cback+0x24>)
  5124ec:	47a0      	blx	r4
  5124ee:	4b04      	ldr	r3, [pc, #16]	; (512500 <mesh_hci_trace_cback+0x28>)
  5124f0:	e8bd 4010 	ldmia.w	sp!, {r4, lr}
  5124f4:	4718      	bx	r3
  5124f6:	bd10      	pop	{r4, pc}
  5124f8:	000d3259 	.word	0x000d3259
  5124fc:	00525504 	.word	0x00525504
  512500:	000d38ff 	.word	0x000d38ff

00512504 <mesh_app_hci_init>:
  512504:	b510      	push	{r4, lr}
  512506:	4b17      	ldr	r3, [pc, #92]	; (512564 <mesh_app_hci_init+0x60>)
  512508:	4817      	ldr	r0, [pc, #92]	; (512568 <mesh_app_hci_init+0x64>)
  51250a:	4c18      	ldr	r4, [pc, #96]	; (51256c <mesh_app_hci_init+0x68>)
  51250c:	4798      	blx	r3
  51250e:	2102      	movs	r1, #2
  512510:	4b17      	ldr	r3, [pc, #92]	; (512570 <mesh_app_hci_init+0x6c>)
  512512:	f44f 6080 	mov.w	r0, #1024	; 0x400
  512516:	4798      	blx	r3
  512518:	4b16      	ldr	r3, [pc, #88]	; (512574 <mesh_app_hci_init+0x70>)
  51251a:	6018      	str	r0, [r3, #0]
  51251c:	2004      	movs	r0, #4
  51251e:	4b16      	ldr	r3, [pc, #88]	; (512578 <mesh_app_hci_init+0x74>)
  512520:	4798      	blx	r3
  512522:	f44f 2061 	mov.w	r0, #921600	; 0xe1000
  512526:	4b15      	ldr	r3, [pc, #84]	; (51257c <mesh_app_hci_init+0x78>)
  512528:	4798      	blx	r3
  51252a:	2238      	movs	r2, #56	; 0x38
  51252c:	2100      	movs	r1, #0
  51252e:	4b14      	ldr	r3, [pc, #80]	; (512580 <mesh_app_hci_init+0x7c>)
  512530:	4814      	ldr	r0, [pc, #80]	; (512584 <mesh_app_hci_init+0x80>)
  512532:	4798      	blx	r3
  512534:	2303      	movs	r3, #3
  512536:	2200      	movs	r2, #0
  512538:	4913      	ldr	r1, [pc, #76]	; (512588 <mesh_app_hci_init+0x84>)
  51253a:	4812      	ldr	r0, [pc, #72]	; (512584 <mesh_app_hci_init+0x80>)
  51253c:	47a0      	blx	r4
  51253e:	b970      	cbnz	r0, 51255e <mesh_app_hci_init+0x5a>
  512540:	2101      	movs	r1, #1
  512542:	4810      	ldr	r0, [pc, #64]	; (512584 <mesh_app_hci_init+0x80>)
  512544:	4b11      	ldr	r3, [pc, #68]	; (51258c <mesh_app_hci_init+0x88>)
  512546:	4798      	blx	r3
  512548:	b120      	cbz	r0, 512554 <mesh_app_hci_init+0x50>
  51254a:	4a11      	ldr	r2, [pc, #68]	; (512590 <mesh_app_hci_init+0x8c>)
  51254c:	4b11      	ldr	r3, [pc, #68]	; (512594 <mesh_app_hci_init+0x90>)
  51254e:	2100      	movs	r1, #0
  512550:	4608      	mov	r0, r1
  512552:	4798      	blx	r3
  512554:	4810      	ldr	r0, [pc, #64]	; (512598 <mesh_app_hci_init+0x94>)
  512556:	4b11      	ldr	r3, [pc, #68]	; (51259c <mesh_app_hci_init+0x98>)
  512558:	e8bd 4010 	ldmia.w	sp!, {r4, lr}
  51255c:	4718      	bx	r3
  51255e:	4a10      	ldr	r2, [pc, #64]	; (5125a0 <mesh_app_hci_init+0x9c>)
  512560:	e7f4      	b.n	51254c <mesh_app_hci_init+0x48>
  512562:	bf00      	nop
  512564:	0003a0f9 	.word	0x0003a0f9
  512568:	005251e0 	.word	0x005251e0
  51256c:	00006451 	.word	0x00006451
  512570:	0003a15b 	.word	0x0003a15b
  512574:	00210008 	.word	0x00210008
  512578:	000d2dc5 	.word	0x000d2dc5
  51257c:	000d39e3 	.word	0x000d39e3
  512580:	00006d41 	.word	0x00006d41
  512584:	002103c4 	.word	0x002103c4
  512588:	00512629 	.word	0x00512629
  51258c:	0000647b 	.word	0x0000647b
  512590:	005256e7 	.word	0x005256e7
  512594:	000d3259 	.word	0x000d3259
  512598:	005124d9 	.word	0x005124d9
  51259c:	00082d6b 	.word	0x00082d6b
  5125a0:	00525701 	.word	0x00525701

005125a4 <_deb_print_buf_use>:
  5125a4:	b510      	push	{r4, lr}
  5125a6:	b09a      	sub	sp, #104	; 0x68
  5125a8:	2124      	movs	r1, #36	; 0x24
  5125aa:	a811      	add	r0, sp, #68	; 0x44
  5125ac:	4b1b      	ldr	r3, [pc, #108]	; (51261c <_deb_print_buf_use+0x78>)
  5125ae:	4c1c      	ldr	r4, [pc, #112]	; (512620 <_deb_print_buf_use+0x7c>)
  5125b0:	4798      	blx	r3
  5125b2:	f8bd 2066 	ldrh.w	r2, [sp, #102]	; 0x66
  5125b6:	920e      	str	r2, [sp, #56]	; 0x38
  5125b8:	f8bd 2064 	ldrh.w	r2, [sp, #100]	; 0x64
  5125bc:	920d      	str	r2, [sp, #52]	; 0x34
  5125be:	f8bd 2062 	ldrh.w	r2, [sp, #98]	; 0x62
  5125c2:	920c      	str	r2, [sp, #48]	; 0x30
  5125c4:	f8bd 2060 	ldrh.w	r2, [sp, #96]	; 0x60
  5125c8:	920b      	str	r2, [sp, #44]	; 0x2c
  5125ca:	f8bd 205d 	ldrh.w	r2, [sp, #93]	; 0x5d
  5125ce:	920a      	str	r2, [sp, #40]	; 0x28
  5125d0:	f8bd 205b 	ldrh.w	r2, [sp, #91]	; 0x5b
  5125d4:	9209      	str	r2, [sp, #36]	; 0x24
  5125d6:	f8bd 2059 	ldrh.w	r2, [sp, #89]	; 0x59
  5125da:	9208      	str	r2, [sp, #32]
  5125dc:	f8bd 2057 	ldrh.w	r2, [sp, #87]	; 0x57
  5125e0:	9207      	str	r2, [sp, #28]
  5125e2:	f8bd 2054 	ldrh.w	r2, [sp, #84]	; 0x54
  5125e6:	9206      	str	r2, [sp, #24]
  5125e8:	f8bd 2052 	ldrh.w	r2, [sp, #82]	; 0x52
  5125ec:	9205      	str	r2, [sp, #20]
  5125ee:	f8bd 2050 	ldrh.w	r2, [sp, #80]	; 0x50
  5125f2:	9204      	str	r2, [sp, #16]
  5125f4:	f8bd 204e 	ldrh.w	r2, [sp, #78]	; 0x4e
  5125f8:	9203      	str	r2, [sp, #12]
  5125fa:	f8bd 204b 	ldrh.w	r2, [sp, #75]	; 0x4b
  5125fe:	9202      	str	r2, [sp, #8]
  512600:	f8bd 2049 	ldrh.w	r2, [sp, #73]	; 0x49
  512604:	9201      	str	r2, [sp, #4]
  512606:	2100      	movs	r1, #0
  512608:	f8bd 2047 	ldrh.w	r2, [sp, #71]	; 0x47
  51260c:	9200      	str	r2, [sp, #0]
  51260e:	f8bd 3045 	ldrh.w	r3, [sp, #69]	; 0x45
  512612:	4a04      	ldr	r2, [pc, #16]	; (512624 <_deb_print_buf_use+0x80>)
  512614:	4608      	mov	r0, r1
  512616:	47a0      	blx	r4
  512618:	b01a      	add	sp, #104	; 0x68
  51261a:	bd10      	pop	{r4, pc}
  51261c:	00050d75 	.word	0x00050d75
  512620:	000d3259 	.word	0x000d3259
  512624:	0052572b 	.word	0x0052572b

00512628 <mesh_app_timer>:
  512628:	4a06      	ldr	r2, [pc, #24]	; (512644 <mesh_app_timer+0x1c>)
  51262a:	6813      	ldr	r3, [r2, #0]
  51262c:	211e      	movs	r1, #30
  51262e:	3301      	adds	r3, #1
  512630:	6013      	str	r3, [r2, #0]
  512632:	fbb3 f2f1 	udiv	r2, r3, r1
  512636:	fb01 3312 	mls	r3, r1, r2, r3
  51263a:	b90b      	cbnz	r3, 512640 <mesh_app_timer+0x18>
  51263c:	4b02      	ldr	r3, [pc, #8]	; (512648 <mesh_app_timer+0x20>)
  51263e:	4718      	bx	r3
  512640:	4770      	bx	lr
  512642:	bf00      	nop
  512644:	0020fd70 	.word	0x0020fd70
  512648:	005125a5 	.word	0x005125a5

0051264c <mesh_app_hci_send_seq_changed>:
  51264c:	4b0c      	ldr	r3, [pc, #48]	; (512680 <mesh_app_hci_send_seq_changed+0x34>)
  51264e:	b510      	push	{r4, lr}
  512650:	4604      	mov	r4, r0
  512652:	6818      	ldr	r0, [r3, #0]
  512654:	4b0b      	ldr	r3, [pc, #44]	; (512684 <mesh_app_hci_send_seq_changed+0x38>)
  512656:	4798      	blx	r3
  512658:	4601      	mov	r1, r0
  51265a:	b180      	cbz	r0, 51267e <mesh_app_hci_send_seq_changed+0x32>
  51265c:	8823      	ldrh	r3, [r4, #0]
  51265e:	8003      	strh	r3, [r0, #0]
  512660:	6863      	ldr	r3, [r4, #4]
  512662:	f8c0 3002 	str.w	r3, [r0, #2]
  512666:	7a23      	ldrb	r3, [r4, #8]
  512668:	7183      	strb	r3, [r0, #6]
  51266a:	8963      	ldrh	r3, [r4, #10]
  51266c:	f8a0 3007 	strh.w	r3, [r0, #7]
  512670:	2209      	movs	r2, #9
  512672:	f241 60fc 	movw	r0, #5884	; 0x16fc
  512676:	4b04      	ldr	r3, [pc, #16]	; (512688 <mesh_app_hci_send_seq_changed+0x3c>)
  512678:	e8bd 4010 	ldmia.w	sp!, {r4, lr}
  51267c:	4718      	bx	r3
  51267e:	bd10      	pop	{r4, pc}
  512680:	00210008 	.word	0x00210008
  512684:	0003a1a3 	.word	0x0003a1a3
  512688:	0003a1eb 	.word	0x0003a1eb

0051268c <mesh_app_hci_sleep>:
  51268c:	b510      	push	{r4, lr}
  51268e:	4805      	ldr	r0, [pc, #20]	; (5126a4 <mesh_app_hci_sleep+0x18>)
  512690:	4b05      	ldr	r3, [pc, #20]	; (5126a8 <mesh_app_hci_sleep+0x1c>)
  512692:	4798      	blx	r3
  512694:	b120      	cbz	r0, 5126a0 <mesh_app_hci_sleep+0x14>
  512696:	4803      	ldr	r0, [pc, #12]	; (5126a4 <mesh_app_hci_sleep+0x18>)
  512698:	4b04      	ldr	r3, [pc, #16]	; (5126ac <mesh_app_hci_sleep+0x20>)
  51269a:	e8bd 4010 	ldmia.w	sp!, {r4, lr}
  51269e:	4718      	bx	r3
  5126a0:	bd10      	pop	{r4, pc}
  5126a2:	bf00      	nop
  5126a4:	002103c4 	.word	0x002103c4
  5126a8:	000064bf 	.word	0x000064bf
  5126ac:	000064ad 	.word	0x000064ad

005126b0 <mesh_app_provision_get_oob>:
  5126b0:	b513      	push	{r0, r1, r4, lr}
  5126b2:	4808      	ldr	r0, [pc, #32]	; (5126d4 <mesh_app_provision_get_oob+0x24>)
  5126b4:	6844      	ldr	r4, [r0, #4]
  5126b6:	b15c      	cbz	r4, 5126d0 <mesh_app_provision_get_oob+0x20>
  5126b8:	f88d 1002 	strb.w	r1, [sp, #2]
  5126bc:	20ce      	movs	r0, #206	; 0xce
  5126be:	f88d 2003 	strb.w	r2, [sp, #3]
  5126c2:	f8ad 3004 	strh.w	r3, [sp, #4]
  5126c6:	4669      	mov	r1, sp
  5126c8:	47a0      	blx	r4
  5126ca:	2001      	movs	r0, #1
  5126cc:	b002      	add	sp, #8
  5126ce:	bd10      	pop	{r4, pc}
  5126d0:	4620      	mov	r0, r4
  5126d2:	e7fb      	b.n	5126cc <mesh_app_provision_get_oob+0x1c>
  5126d4:	00210010 	.word	0x00210010

005126d8 <mesh_app_provision_gatt_send_cb>:
  5126d8:	b570      	push	{r4, r5, r6, lr}
  5126da:	460b      	mov	r3, r1
  5126dc:	4604      	mov	r4, r0
  5126de:	b292      	uxth	r2, r2
  5126e0:	212c      	movs	r1, #44	; 0x2c
  5126e2:	4d05      	ldr	r5, [pc, #20]	; (5126f8 <mesh_app_provision_gatt_send_cb+0x20>)
  5126e4:	47a8      	blx	r5
  5126e6:	4623      	mov	r3, r4
  5126e8:	4c04      	ldr	r4, [pc, #16]	; (5126fc <mesh_app_provision_gatt_send_cb+0x24>)
  5126ea:	4a05      	ldr	r2, [pc, #20]	; (512700 <mesh_app_provision_gatt_send_cb+0x28>)
  5126ec:	2100      	movs	r1, #0
  5126ee:	46a4      	mov	ip, r4
  5126f0:	4608      	mov	r0, r1
  5126f2:	e8bd 4070 	ldmia.w	sp!, {r4, r5, r6, lr}
  5126f6:	4760      	bx	ip
  5126f8:	000d2993 	.word	0x000d2993
  5126fc:	000d3259 	.word	0x000d3259
  512700:	00525902 	.word	0x00525902

00512704 <mesh_app_provision_started>:
  512704:	2100      	movs	r1, #0
  512706:	4603      	mov	r3, r0
  512708:	b510      	push	{r4, lr}
  51270a:	4a06      	ldr	r2, [pc, #24]	; (512724 <mesh_app_provision_started+0x20>)
  51270c:	4c06      	ldr	r4, [pc, #24]	; (512728 <mesh_app_provision_started+0x24>)
  51270e:	4608      	mov	r0, r1
  512710:	47a0      	blx	r4
  512712:	4b06      	ldr	r3, [pc, #24]	; (51272c <mesh_app_provision_started+0x28>)
  512714:	685b      	ldr	r3, [r3, #4]
  512716:	b123      	cbz	r3, 512722 <mesh_app_provision_started+0x1e>
  512718:	2100      	movs	r1, #0
  51271a:	20cb      	movs	r0, #203	; 0xcb
  51271c:	e8bd 4010 	ldmia.w	sp!, {r4, lr}
  512720:	4718      	bx	r3
  512722:	bd10      	pop	{r4, pc}
  512724:	0052592f 	.word	0x0052592f
  512728:	000d3259 	.word	0x000d3259
  51272c:	00210010 	.word	0x00210010

00512730 <mesh_app_provision_get_capabilities>:
  512730:	b57f      	push	{r0, r1, r2, r3, r4, r5, r6, lr}
  512732:	4605      	mov	r5, r0
  512734:	220b      	movs	r2, #11
  512736:	2100      	movs	r1, #0
  512738:	a801      	add	r0, sp, #4
  51273a:	4b19      	ldr	r3, [pc, #100]	; (5127a0 <mesh_app_provision_get_capabilities+0x70>)
  51273c:	4e19      	ldr	r6, [pc, #100]	; (5127a4 <mesh_app_provision_get_capabilities+0x74>)
  51273e:	4798      	blx	r3
  512740:	4b19      	ldr	r3, [pc, #100]	; (5127a8 <mesh_app_provision_get_capabilities+0x78>)
  512742:	f893 302e 	ldrb.w	r3, [r3, #46]	; 0x2e
  512746:	f88d 3004 	strb.w	r3, [sp, #4]
  51274a:	4b18      	ldr	r3, [pc, #96]	; (5127ac <mesh_app_provision_get_capabilities+0x7c>)
  51274c:	7a1a      	ldrb	r2, [r3, #8]
  51274e:	f88d 2007 	strb.w	r2, [sp, #7]
  512752:	7a5a      	ldrb	r2, [r3, #9]
  512754:	f88d 2008 	strb.w	r2, [sp, #8]
  512758:	8b9a      	ldrh	r2, [r3, #28]
  51275a:	f88d 200b 	strb.w	r2, [sp, #11]
  51275e:	0a10      	lsrs	r0, r2, #8
  512760:	7e9a      	ldrb	r2, [r3, #26]
  512762:	f88d 2009 	strb.w	r2, [sp, #9]
  512766:	8c1a      	ldrh	r2, [r3, #32]
  512768:	f88d 000a 	strb.w	r0, [sp, #10]
  51276c:	2100      	movs	r1, #0
  51276e:	0a10      	lsrs	r0, r2, #8
  512770:	7f9b      	ldrb	r3, [r3, #30]
  512772:	f88d 000d 	strb.w	r0, [sp, #13]
  512776:	2401      	movs	r4, #1
  512778:	f88d 200e 	strb.w	r2, [sp, #14]
  51277c:	f88d 300c 	strb.w	r3, [sp, #12]
  512780:	4a0b      	ldr	r2, [pc, #44]	; (5127b0 <mesh_app_provision_get_capabilities+0x80>)
  512782:	f88d 1005 	strb.w	r1, [sp, #5]
  512786:	462b      	mov	r3, r5
  512788:	4608      	mov	r0, r1
  51278a:	f88d 4006 	strb.w	r4, [sp, #6]
  51278e:	47b0      	blx	r6
  512790:	a901      	add	r1, sp, #4
  512792:	4628      	mov	r0, r5
  512794:	4b07      	ldr	r3, [pc, #28]	; (5127b4 <mesh_app_provision_get_capabilities+0x84>)
  512796:	4798      	blx	r3
  512798:	4620      	mov	r0, r4
  51279a:	b004      	add	sp, #16
  51279c:	bd70      	pop	{r4, r5, r6, pc}
  51279e:	bf00      	nop
  5127a0:	00006d41 	.word	0x00006d41
  5127a4:	000d3259 	.word	0x000d3259
  5127a8:	0020fe74 	.word	0x0020fe74
  5127ac:	00210010 	.word	0x00210010
  5127b0:	00525957 	.word	0x00525957
  5127b4:	00517975 	.word	0x00517975

005127b8 <mesh_app_provision_end>:
  5127b8:	e92d 41f0 	stmdb	sp!, {r4, r5, r6, r7, r8, lr}
  5127bc:	b088      	sub	sp, #32
  5127be:	4688      	mov	r8, r1
  5127c0:	2100      	movs	r1, #0
  5127c2:	4c14      	ldr	r4, [pc, #80]	; (512814 <mesh_app_provision_end+0x5c>)
  5127c4:	9300      	str	r3, [sp, #0]
  5127c6:	4617      	mov	r7, r2
  5127c8:	461e      	mov	r6, r3
  5127ca:	4a13      	ldr	r2, [pc, #76]	; (512818 <mesh_app_provision_end+0x60>)
  5127cc:	9d0e      	ldr	r5, [sp, #56]	; 0x38
  5127ce:	4603      	mov	r3, r0
  5127d0:	4608      	mov	r0, r1
  5127d2:	47a0      	blx	r4
  5127d4:	2100      	movs	r1, #0
  5127d6:	4a11      	ldr	r2, [pc, #68]	; (51281c <mesh_app_provision_end+0x64>)
  5127d8:	4608      	mov	r0, r1
  5127da:	47a0      	blx	r4
  5127dc:	4c10      	ldr	r4, [pc, #64]	; (512820 <mesh_app_provision_end+0x68>)
  5127de:	4b11      	ldr	r3, [pc, #68]	; (512824 <mesh_app_provision_end+0x6c>)
  5127e0:	2110      	movs	r1, #16
  5127e2:	4628      	mov	r0, r5
  5127e4:	4798      	blx	r3
  5127e6:	6862      	ldr	r2, [r4, #4]
  5127e8:	b182      	cbz	r2, 51280c <mesh_app_provision_end+0x54>
  5127ea:	f8ad 800a 	strh.w	r8, [sp, #10]
  5127ee:	f8ad 700c 	strh.w	r7, [sp, #12]
  5127f2:	f88d 600e 	strb.w	r6, [sp, #14]
  5127f6:	b12d      	cbz	r5, 512804 <mesh_app_provision_end+0x4c>
  5127f8:	2210      	movs	r2, #16
  5127fa:	4629      	mov	r1, r5
  5127fc:	f10d 000f 	add.w	r0, sp, #15
  512800:	4b09      	ldr	r3, [pc, #36]	; (512828 <mesh_app_provision_end+0x70>)
  512802:	4798      	blx	r3
  512804:	6863      	ldr	r3, [r4, #4]
  512806:	a902      	add	r1, sp, #8
  512808:	20cc      	movs	r0, #204	; 0xcc
  51280a:	4798      	blx	r3
  51280c:	b008      	add	sp, #32
  51280e:	e8bd 81f0 	ldmia.w	sp!, {r4, r5, r6, r7, r8, pc}
  512812:	bf00      	nop
  512814:	000d3259 	.word	0x000d3259
  512818:	00525988 	.word	0x00525988
  51281c:	00526569 	.word	0x00526569
  512820:	00210010 	.word	0x00210010
  512824:	000d2e27 	.word	0x000d2e27
  512828:	00006d31 	.word	0x00006d31

0051282c <wiced_bt_mesh_app_provision_server_init>:
  51282c:	b513      	push	{r0, r1, r4, lr}
  51282e:	4b06      	ldr	r3, [pc, #24]	; (512848 <wiced_bt_mesh_app_provision_server_init+0x1c>)
  512830:	4a06      	ldr	r2, [pc, #24]	; (51284c <wiced_bt_mesh_app_provision_server_init+0x20>)
  512832:	6059      	str	r1, [r3, #4]
  512834:	4b06      	ldr	r3, [pc, #24]	; (512850 <wiced_bt_mesh_app_provision_server_init+0x24>)
  512836:	9301      	str	r3, [sp, #4]
  512838:	4b06      	ldr	r3, [pc, #24]	; (512854 <wiced_bt_mesh_app_provision_server_init+0x28>)
  51283a:	9300      	str	r3, [sp, #0]
  51283c:	4906      	ldr	r1, [pc, #24]	; (512858 <wiced_bt_mesh_app_provision_server_init+0x2c>)
  51283e:	4b07      	ldr	r3, [pc, #28]	; (51285c <wiced_bt_mesh_app_provision_server_init+0x30>)
  512840:	4c07      	ldr	r4, [pc, #28]	; (512860 <wiced_bt_mesh_app_provision_server_init+0x34>)
  512842:	47a0      	blx	r4
  512844:	b002      	add	sp, #8
  512846:	bd10      	pop	{r4, pc}
  512848:	00210010 	.word	0x00210010
  51284c:	005127b9 	.word	0x005127b9
  512850:	005126d9 	.word	0x005126d9
  512854:	005126b1 	.word	0x005126b1
  512858:	00512705 	.word	0x00512705
  51285c:	00512731 	.word	0x00512731
  512860:	00516fc9 	.word	0x00516fc9

00512864 <number_of_elements_with_model>:
  512864:	b5f0      	push	{r4, r5, r6, r7, lr}
  512866:	4a12      	ldr	r2, [pc, #72]	; (5128b0 <number_of_elements_with_model+0x4c>)
  512868:	f8d2 302f 	ldr.w	r3, [r2, #47]	; 0x2f
  51286c:	f892 202e 	ldrb.w	r2, [r2, #46]	; 0x2e
  512870:	251d      	movs	r5, #29
  512872:	fb15 3502 	smlabb	r5, r5, r2, r3
  512876:	f64f 77ff 	movw	r7, #65535	; 0xffff
  51287a:	2200      	movs	r2, #0
  51287c:	42ab      	cmp	r3, r5
  51287e:	d015      	beq.n	5128ac <number_of_elements_with_model+0x48>
  512880:	7e1e      	ldrb	r6, [r3, #24]
  512882:	2100      	movs	r1, #0
  512884:	e000      	b.n	512888 <number_of_elements_with_model+0x24>
  512886:	3101      	adds	r1, #1
  512888:	b2cc      	uxtb	r4, r1
  51288a:	42a6      	cmp	r6, r4
  51288c:	d90c      	bls.n	5128a8 <number_of_elements_with_model+0x44>
  51288e:	f8d3 4019 	ldr.w	r4, [r3, #25]
  512892:	eb04 1401 	add.w	r4, r4, r1, lsl #4
  512896:	f8b4 c000 	ldrh.w	ip, [r4]
  51289a:	45bc      	cmp	ip, r7
  51289c:	d1f3      	bne.n	512886 <number_of_elements_with_model+0x22>
  51289e:	8864      	ldrh	r4, [r4, #2]
  5128a0:	4284      	cmp	r4, r0
  5128a2:	d1f0      	bne.n	512886 <number_of_elements_with_model+0x22>
  5128a4:	3201      	adds	r2, #1
  5128a6:	b2d2      	uxtb	r2, r2
  5128a8:	331d      	adds	r3, #29
  5128aa:	e7e7      	b.n	51287c <number_of_elements_with_model+0x18>
  5128ac:	4610      	mov	r0, r2
  5128ae:	bdf0      	pop	{r4, r5, r6, r7, pc}
  5128b0:	0020fe74 	.word	0x0020fe74

005128b4 <mesh_ota_firmware_upgrade_status_callback>:
  5128b4:	b410      	push	{r4}
  5128b6:	4c04      	ldr	r4, [pc, #16]	; (5128c8 <mesh_ota_firmware_upgrade_status_callback+0x14>)
  5128b8:	4a04      	ldr	r2, [pc, #16]	; (5128cc <mesh_ota_firmware_upgrade_status_callback+0x18>)
  5128ba:	2100      	movs	r1, #0
  5128bc:	4603      	mov	r3, r0
  5128be:	46a4      	mov	ip, r4
  5128c0:	4608      	mov	r0, r1
  5128c2:	bc10      	pop	{r4}
  5128c4:	4760      	bx	ip
  5128c6:	bf00      	nop
  5128c8:	000d3259 	.word	0x000d3259
  5128cc:	005259bf 	.word	0x005259bf

005128d0 <get_msg_handler_callback>:
  5128d0:	e92d 4ff0 	stmdb	sp!, {r4, r5, r6, r7, r8, r9, sl, fp, lr}
  5128d4:	b0a3      	sub	sp, #140	; 0x8c
  5128d6:	460d      	mov	r5, r1
  5128d8:	9100      	str	r1, [sp, #0]
  5128da:	2100      	movs	r1, #0
  5128dc:	e9cd 2304 	strd	r2, r3, [sp, #16]
  5128e0:	4606      	mov	r6, r0
  5128e2:	4603      	mov	r3, r0
  5128e4:	4c39      	ldr	r4, [pc, #228]	; (5129cc <get_msg_handler_callback+0xfc>)
  5128e6:	4a3a      	ldr	r2, [pc, #232]	; (5129d0 <get_msg_handler_callback+0x100>)
  5128e8:	4608      	mov	r0, r1
  5128ea:	47a0      	blx	r4
  5128ec:	f64f 73fe 	movw	r3, #65534	; 0xfffe
  5128f0:	429e      	cmp	r6, r3
  5128f2:	9406      	str	r4, [sp, #24]
  5128f4:	d103      	bne.n	5128fe <get_msg_handler_callback+0x2e>
  5128f6:	4b37      	ldr	r3, [pc, #220]	; (5129d4 <get_msg_handler_callback+0x104>)
  5128f8:	681c      	ldr	r4, [r3, #0]
  5128fa:	2c00      	cmp	r4, #0
  5128fc:	d161      	bne.n	5129c2 <get_msg_handler_callback+0xf2>
  5128fe:	f8df a0d8 	ldr.w	sl, [pc, #216]	; 5129d8 <get_msg_handler_callback+0x108>
  512902:	f8ad 5030 	strh.w	r5, [sp, #48]	; 0x30
  512906:	f64f 73ff 	movw	r3, #65535	; 0xffff
  51290a:	2500      	movs	r5, #0
  51290c:	f8ad 602c 	strh.w	r6, [sp, #44]	; 0x2c
  512910:	f8ad 302e 	strh.w	r3, [sp, #46]	; 0x2e
  512914:	462c      	mov	r4, r5
  512916:	46d3      	mov	fp, sl
  512918:	f89a 302e 	ldrb.w	r3, [sl, #46]	; 0x2e
  51291c:	b2ef      	uxtb	r7, r5
  51291e:	42bb      	cmp	r3, r7
  512920:	d941      	bls.n	5129a6 <get_msg_handler_callback+0xd6>
  512922:	231d      	movs	r3, #29
  512924:	fb03 f907 	mul.w	r9, r3, r7
  512928:	f04f 0800 	mov.w	r8, #0
  51292c:	e001      	b.n	512932 <get_msg_handler_callback+0x62>
  51292e:	f108 0801 	add.w	r8, r8, #1
  512932:	f8db 202f 	ldr.w	r2, [fp, #47]	; 0x2f
  512936:	444a      	add	r2, r9
  512938:	fa5f f388 	uxtb.w	r3, r8
  51293c:	7e11      	ldrb	r1, [r2, #24]
  51293e:	4299      	cmp	r1, r3
  512940:	d929      	bls.n	512996 <get_msg_handler_callback+0xc6>
  512942:	0119      	lsls	r1, r3, #4
  512944:	9103      	str	r1, [sp, #12]
  512946:	9307      	str	r3, [sp, #28]
  512948:	f8d2 2019 	ldr.w	r2, [r2, #25]
  51294c:	440a      	add	r2, r1
  51294e:	8811      	ldrh	r1, [r2, #0]
  512950:	42b1      	cmp	r1, r6
  512952:	d1ec      	bne.n	51292e <get_msg_handler_callback+0x5e>
  512954:	6854      	ldr	r4, [r2, #4]
  512956:	2c00      	cmp	r4, #0
  512958:	d0e9      	beq.n	51292e <get_msg_handler_callback+0x5e>
  51295a:	2200      	movs	r2, #0
  51295c:	4611      	mov	r1, r2
  51295e:	a809      	add	r0, sp, #36	; 0x24
  512960:	47a0      	blx	r4
  512962:	2800      	cmp	r0, #0
  512964:	d0e3      	beq.n	51292e <get_msg_handler_callback+0x5e>
  512966:	9a04      	ldr	r2, [sp, #16]
  512968:	9b07      	ldr	r3, [sp, #28]
  51296a:	b14a      	cbz	r2, 512980 <get_msg_handler_callback+0xb0>
  51296c:	f8db 202f 	ldr.w	r2, [fp, #47]	; 0x2f
  512970:	9903      	ldr	r1, [sp, #12]
  512972:	444a      	add	r2, r9
  512974:	f8d2 2019 	ldr.w	r2, [r2, #25]
  512978:	440a      	add	r2, r1
  51297a:	9904      	ldr	r1, [sp, #16]
  51297c:	8852      	ldrh	r2, [r2, #2]
  51297e:	800a      	strh	r2, [r1, #0]
  512980:	f8bd 102e 	ldrh.w	r1, [sp, #46]	; 0x2e
  512984:	f64f 72ff 	movw	r2, #65535	; 0xffff
  512988:	4291      	cmp	r1, r2
  51298a:	d004      	beq.n	512996 <get_msg_handler_callback+0xc6>
  51298c:	9a05      	ldr	r2, [sp, #20]
  51298e:	b112      	cbz	r2, 512996 <get_msg_handler_callback+0xc6>
  512990:	9905      	ldr	r1, [sp, #20]
  512992:	2201      	movs	r2, #1
  512994:	600a      	str	r2, [r1, #0]
  512996:	f8da 202f 	ldr.w	r2, [sl, #47]	; 0x2f
  51299a:	4491      	add	r9, r2
  51299c:	3501      	adds	r5, #1
  51299e:	f899 2018 	ldrb.w	r2, [r9, #24]
  5129a2:	429a      	cmp	r2, r3
  5129a4:	d9b8      	bls.n	512918 <get_msg_handler_callback+0x48>
  5129a6:	4b0c      	ldr	r3, [pc, #48]	; (5129d8 <get_msg_handler_callback+0x108>)
  5129a8:	f893 302e 	ldrb.w	r3, [r3, #46]	; 0x2e
  5129ac:	42bb      	cmp	r3, r7
  5129ae:	d900      	bls.n	5129b2 <get_msg_handler_callback+0xe2>
  5129b0:	b93c      	cbnz	r4, 5129c2 <get_msg_handler_callback+0xf2>
  5129b2:	4b08      	ldr	r3, [pc, #32]	; (5129d4 <get_msg_handler_callback+0x104>)
  5129b4:	685c      	ldr	r4, [r3, #4]
  5129b6:	b924      	cbnz	r4, 5129c2 <get_msg_handler_callback+0xf2>
  5129b8:	4a08      	ldr	r2, [pc, #32]	; (5129dc <get_msg_handler_callback+0x10c>)
  5129ba:	9b06      	ldr	r3, [sp, #24]
  5129bc:	4621      	mov	r1, r4
  5129be:	4620      	mov	r0, r4
  5129c0:	4798      	blx	r3
  5129c2:	4620      	mov	r0, r4
  5129c4:	b023      	add	sp, #140	; 0x8c
  5129c6:	e8bd 8ff0 	ldmia.w	sp!, {r4, r5, r6, r7, r8, r9, sl, fp, pc}
  5129ca:	bf00      	nop
  5129cc:	000d3259 	.word	0x000d3259
  5129d0:	005259f5 	.word	0x005259f5
  5129d4:	00210034 	.word	0x00210034
  5129d8:	0020fe74 	.word	0x0020fe74
  5129dc:	00525acc 	.word	0x00525acc

005129e0 <mesh_start_stop_scan_callback>:
  5129e0:	e92d 41ff 	stmdb	sp!, {r0, r1, r2, r3, r4, r5, r6, r7, r8, lr}
  5129e4:	4b15      	ldr	r3, [pc, #84]	; (512a3c <mesh_start_stop_scan_callback+0x5c>)
  5129e6:	4e16      	ldr	r6, [pc, #88]	; (512a40 <mesh_start_stop_scan_callback+0x60>)
  5129e8:	f8df 806c 	ldr.w	r8, [pc, #108]	; 512a58 <mesh_start_stop_scan_callback+0x78>
  5129ec:	4605      	mov	r5, r0
  5129ee:	460c      	mov	r4, r1
  5129f0:	4798      	blx	r3
  5129f2:	68b3      	ldr	r3, [r6, #8]
  5129f4:	9400      	str	r4, [sp, #0]
  5129f6:	2100      	movs	r1, #0
  5129f8:	e9cd 0301 	strd	r0, r3, [sp, #4]
  5129fc:	4607      	mov	r7, r0
  5129fe:	462b      	mov	r3, r5
  512a00:	4a10      	ldr	r2, [pc, #64]	; (512a44 <mesh_start_stop_scan_callback+0x64>)
  512a02:	4608      	mov	r0, r1
  512a04:	47c0      	blx	r8
  512a06:	b185      	cbz	r5, 512a2a <mesh_start_stop_scan_callback+0x4a>
  512a08:	4b0f      	ldr	r3, [pc, #60]	; (512a48 <mesh_start_stop_scan_callback+0x68>)
  512a0a:	3400      	adds	r4, #0
  512a0c:	f04f 0260 	mov.w	r2, #96	; 0x60
  512a10:	bf18      	it	ne
  512a12:	2401      	movne	r4, #1
  512a14:	841a      	strh	r2, [r3, #32]
  512a16:	4a0d      	ldr	r2, [pc, #52]	; (512a4c <mesh_start_stop_scan_callback+0x6c>)
  512a18:	759c      	strb	r4, [r3, #22]
  512a1a:	8a12      	ldrh	r2, [r2, #16]
  512a1c:	0752      	lsls	r2, r2, #29
  512a1e:	d504      	bpl.n	512a2a <mesh_start_stop_scan_callback+0x4a>
  512a20:	b91f      	cbnz	r7, 512a2a <mesh_start_stop_scan_callback+0x4a>
  512a22:	68b2      	ldr	r2, [r6, #8]
  512a24:	b90a      	cbnz	r2, 512a2a <mesh_start_stop_scan_callback+0x4a>
  512a26:	2230      	movs	r2, #48	; 0x30
  512a28:	841a      	strh	r2, [r3, #32]
  512a2a:	4a09      	ldr	r2, [pc, #36]	; (512a50 <mesh_start_stop_scan_callback+0x70>)
  512a2c:	4b09      	ldr	r3, [pc, #36]	; (512a54 <mesh_start_stop_scan_callback+0x74>)
  512a2e:	2100      	movs	r1, #0
  512a30:	4628      	mov	r0, r5
  512a32:	b004      	add	sp, #16
  512a34:	e8bd 41f0 	ldmia.w	sp!, {r4, r5, r6, r7, r8, lr}
  512a38:	4718      	bx	r3
  512a3a:	bf00      	nop
  512a3c:	00514ead 	.word	0x00514ead
  512a40:	00210034 	.word	0x00210034
  512a44:	00525a0f 	.word	0x00525a0f
  512a48:	0020fd94 	.word	0x0020fd94
  512a4c:	0020fe74 	.word	0x0020fe74
  512a50:	00512a5d 	.word	0x00512a5d
  512a54:	0008a1d9 	.word	0x0008a1d9
  512a58:	000d3259 	.word	0x000d3259

00512a5c <mesh_adv_report>:
  512a5c:	b130      	cbz	r0, 512a6c <mesh_adv_report+0x10>
  512a5e:	79c3      	ldrb	r3, [r0, #7]
  512a60:	2b03      	cmp	r3, #3
  512a62:	d103      	bne.n	512a6c <mesh_adv_report+0x10>
  512a64:	f990 0008 	ldrsb.w	r0, [r0, #8]
  512a68:	4b01      	ldr	r3, [pc, #4]	; (512a70 <mesh_adv_report+0x14>)
  512a6a:	4718      	bx	r3
  512a6c:	4770      	bx	lr
  512a6e:	bf00      	nop
  512a70:	005161bd 	.word	0x005161bd

00512a74 <mesh_nvram_access>:
  512a74:	b538      	push	{r3, r4, r5, lr}
  512a76:	461c      	mov	r4, r3
  512a78:	b28d      	uxth	r5, r1
  512a7a:	b928      	cbnz	r0, 512a88 <mesh_nvram_access+0x14>
  512a7c:	4621      	mov	r1, r4
  512a7e:	9b04      	ldr	r3, [sp, #16]
  512a80:	4c07      	ldr	r4, [pc, #28]	; (512aa0 <mesh_nvram_access+0x2c>)
  512a82:	4628      	mov	r0, r5
  512a84:	47a0      	blx	r4
  512a86:	bd38      	pop	{r3, r4, r5, pc}
  512a88:	b123      	cbz	r3, 512a94 <mesh_nvram_access+0x20>
  512a8a:	4621      	mov	r1, r4
  512a8c:	9b04      	ldr	r3, [sp, #16]
  512a8e:	4c05      	ldr	r4, [pc, #20]	; (512aa4 <mesh_nvram_access+0x30>)
  512a90:	4628      	mov	r0, r5
  512a92:	e7f7      	b.n	512a84 <mesh_nvram_access+0x10>
  512a94:	4628      	mov	r0, r5
  512a96:	9904      	ldr	r1, [sp, #16]
  512a98:	4b03      	ldr	r3, [pc, #12]	; (512aa8 <mesh_nvram_access+0x34>)
  512a9a:	4798      	blx	r3
  512a9c:	4620      	mov	r0, r4
  512a9e:	e7f2      	b.n	512a86 <mesh_nvram_access+0x12>
  512aa0:	0008a5b3 	.word	0x0008a5b3
  512aa4:	0008a597 	.word	0x0008a597
  512aa8:	0008a5cd 	.word	0x0008a5cd

00512aac <mesh_fault_test>:
  512aac:	e92d 41f3 	stmdb	sp!, {r0, r1, r4, r5, r6, r7, r8, lr}
  512ab0:	460f      	mov	r7, r1
  512ab2:	e9cd 1200 	strd	r1, r2, [sp]
  512ab6:	2100      	movs	r1, #0
  512ab8:	4616      	mov	r6, r2
  512aba:	461c      	mov	r4, r3
  512abc:	4a11      	ldr	r2, [pc, #68]	; (512b04 <mesh_fault_test+0x58>)
  512abe:	f8df 804c 	ldr.w	r8, [pc, #76]	; 512b0c <mesh_fault_test+0x60>
  512ac2:	9d08      	ldr	r5, [sp, #32]
  512ac4:	4603      	mov	r3, r0
  512ac6:	4608      	mov	r0, r1
  512ac8:	47c0      	blx	r8
  512aca:	b9cf      	cbnz	r7, 512b00 <mesh_fault_test+0x54>
  512acc:	4b0e      	ldr	r3, [pc, #56]	; (512b08 <mesh_fault_test+0x5c>)
  512ace:	881b      	ldrh	r3, [r3, #0]
  512ad0:	42b3      	cmp	r3, r6
  512ad2:	d115      	bne.n	512b00 <mesh_fault_test+0x54>
  512ad4:	b164      	cbz	r4, 512af0 <mesh_fault_test+0x44>
  512ad6:	2301      	movs	r3, #1
  512ad8:	429c      	cmp	r4, r3
  512ada:	702b      	strb	r3, [r5, #0]
  512adc:	d00a      	beq.n	512af4 <mesh_fault_test+0x48>
  512ade:	2202      	movs	r2, #2
  512ae0:	4294      	cmp	r4, r2
  512ae2:	f103 0001 	add.w	r0, r3, #1
  512ae6:	54ea      	strb	r2, [r5, r3]
  512ae8:	d105      	bne.n	512af6 <mesh_fault_test+0x4a>
  512aea:	b002      	add	sp, #8
  512aec:	e8bd 81f0 	ldmia.w	sp!, {r4, r5, r6, r7, r8, pc}
  512af0:	4623      	mov	r3, r4
  512af2:	e7f4      	b.n	512ade <mesh_fault_test+0x32>
  512af4:	4620      	mov	r0, r4
  512af6:	1c43      	adds	r3, r0, #1
  512af8:	2203      	movs	r2, #3
  512afa:	542a      	strb	r2, [r5, r0]
  512afc:	b2d8      	uxtb	r0, r3
  512afe:	e7f4      	b.n	512aea <mesh_fault_test+0x3e>
  512b00:	20ff      	movs	r0, #255	; 0xff
  512b02:	e7f2      	b.n	512aea <mesh_fault_test+0x3e>
  512b04:	00525a4c 	.word	0x00525a4c
  512b08:	0020fe74 	.word	0x0020fe74
  512b0c:	000d3259 	.word	0x000d3259

00512b10 <mesh_publication_callback>:
  512b10:	e92d 41ff 	stmdb	sp!, {r0, r1, r2, r3, r4, r5, r6, r7, r8, lr}
  512b14:	460e      	mov	r6, r1
  512b16:	9100      	str	r1, [sp, #0]
  512b18:	2100      	movs	r1, #0
  512b1a:	e9cd 2301 	strd	r2, r3, [sp, #4]
  512b1e:	4698      	mov	r8, r3
  512b20:	4604      	mov	r4, r0
  512b22:	4603      	mov	r3, r0
  512b24:	4617      	mov	r7, r2
  512b26:	4608      	mov	r0, r1
  512b28:	4a2c      	ldr	r2, [pc, #176]	; (512bdc <mesh_publication_callback+0xcc>)
  512b2a:	4d2d      	ldr	r5, [pc, #180]	; (512be0 <mesh_publication_callback+0xd0>)
  512b2c:	47a8      	blx	r5
  512b2e:	f64f 73ff 	movw	r3, #65535	; 0xffff
  512b32:	4598      	cmp	r8, r3
  512b34:	d00f      	beq.n	512b56 <mesh_publication_callback+0x46>
  512b36:	4b2b      	ldr	r3, [pc, #172]	; (512be4 <mesh_publication_callback+0xd4>)
  512b38:	691d      	ldr	r5, [r3, #16]
  512b3a:	b90d      	cbnz	r5, 512b40 <mesh_publication_callback+0x30>
  512b3c:	2400      	movs	r4, #0
  512b3e:	e046      	b.n	512bce <mesh_publication_callback+0xbe>
  512b40:	2364      	movs	r3, #100	; 0x64
  512b42:	fb03 f308 	mul.w	r3, r3, r8
  512b46:	463a      	mov	r2, r7
  512b48:	4631      	mov	r1, r6
  512b4a:	4620      	mov	r0, r4
  512b4c:	46ac      	mov	ip, r5
  512b4e:	b004      	add	sp, #16
  512b50:	e8bd 41f0 	ldmia.w	sp!, {r4, r5, r6, r7, r8, lr}
  512b54:	4760      	bx	ip
  512b56:	4b24      	ldr	r3, [pc, #144]	; (512be8 <mesh_publication_callback+0xd8>)
  512b58:	f893 202e 	ldrb.w	r2, [r3, #46]	; 0x2e
  512b5c:	42a2      	cmp	r2, r4
  512b5e:	d91c      	bls.n	512b9a <mesh_publication_callback+0x8a>
  512b60:	f8d3 102f 	ldr.w	r1, [r3, #47]	; 0x2f
  512b64:	ebc4 03c4 	rsb	r3, r4, r4, lsl #3
  512b68:	eb04 0383 	add.w	r3, r4, r3, lsl #2
  512b6c:	4419      	add	r1, r3
  512b6e:	2200      	movs	r2, #0
  512b70:	7e08      	ldrb	r0, [r1, #24]
  512b72:	b2d3      	uxtb	r3, r2
  512b74:	4298      	cmp	r0, r3
  512b76:	d910      	bls.n	512b9a <mesh_publication_callback+0x8a>
  512b78:	f8d1 3019 	ldr.w	r3, [r1, #25]
  512b7c:	eb03 1302 	add.w	r3, r3, r2, lsl #4
  512b80:	f8b3 c000 	ldrh.w	ip, [r3]
  512b84:	45b4      	cmp	ip, r6
  512b86:	d10d      	bne.n	512ba4 <mesh_publication_callback+0x94>
  512b88:	f8b3 c002 	ldrh.w	ip, [r3, #2]
  512b8c:	45bc      	cmp	ip, r7
  512b8e:	d109      	bne.n	512ba4 <mesh_publication_callback+0x94>
  512b90:	f8d3 8004 	ldr.w	r8, [r3, #4]
  512b94:	f1b8 0f00 	cmp.w	r8, #0
  512b98:	d106      	bne.n	512ba8 <mesh_publication_callback+0x98>
  512b9a:	2100      	movs	r1, #0
  512b9c:	4a13      	ldr	r2, [pc, #76]	; (512bec <mesh_publication_callback+0xdc>)
  512b9e:	4608      	mov	r0, r1
  512ba0:	47a8      	blx	r5
  512ba2:	e7cb      	b.n	512b3c <mesh_publication_callback+0x2c>
  512ba4:	3201      	adds	r2, #1
  512ba6:	e7e4      	b.n	512b72 <mesh_publication_callback+0x62>
  512ba8:	2500      	movs	r5, #0
  512baa:	4631      	mov	r1, r6
  512bac:	4620      	mov	r0, r4
  512bae:	9500      	str	r5, [sp, #0]
  512bb0:	462b      	mov	r3, r5
  512bb2:	463a      	mov	r2, r7
  512bb4:	4c0e      	ldr	r4, [pc, #56]	; (512bf0 <mesh_publication_callback+0xe0>)
  512bb6:	47a0      	blx	r4
  512bb8:	4606      	mov	r6, r0
  512bba:	2800      	cmp	r0, #0
  512bbc:	d0be      	beq.n	512b3c <mesh_publication_callback+0x2c>
  512bbe:	462a      	mov	r2, r5
  512bc0:	4629      	mov	r1, r5
  512bc2:	47c0      	blx	r8
  512bc4:	4604      	mov	r4, r0
  512bc6:	b930      	cbnz	r0, 512bd6 <mesh_publication_callback+0xc6>
  512bc8:	4630      	mov	r0, r6
  512bca:	4b0a      	ldr	r3, [pc, #40]	; (512bf4 <mesh_publication_callback+0xe4>)
  512bcc:	4798      	blx	r3
  512bce:	4620      	mov	r0, r4
  512bd0:	b004      	add	sp, #16
  512bd2:	e8bd 81f0 	ldmia.w	sp!, {r4, r5, r6, r7, r8, pc}
  512bd6:	2401      	movs	r4, #1
  512bd8:	e7f9      	b.n	512bce <mesh_publication_callback+0xbe>
  512bda:	bf00      	nop
  512bdc:	00525a82 	.word	0x00525a82
  512be0:	000d3259 	.word	0x000d3259
  512be4:	0020feb0 	.word	0x0020feb0
  512be8:	0020fe74 	.word	0x0020fe74
  512bec:	00525acb 	.word	0x00525acb
  512bf0:	00523f81 	.word	0x00523f81
  512bf4:	0052404d 	.word	0x0052404d

00512bf8 <application_start>:
  512bf8:	e92d 4ff0 	stmdb	sp!, {r4, r5, r6, r7, r8, r9, sl, fp, lr}
  512bfc:	4b57      	ldr	r3, [pc, #348]	; (512d5c <application_start+0x164>)
  512bfe:	b085      	sub	sp, #20
  512c00:	4798      	blx	r3
  512c02:	4b57      	ldr	r3, [pc, #348]	; (512d60 <application_start+0x168>)
  512c04:	685a      	ldr	r2, [r3, #4]
  512c06:	2a00      	cmp	r2, #0
  512c08:	f000 80a1 	beq.w	512d4e <application_start+0x156>
  512c0c:	4790      	blx	r2
  512c0e:	4a55      	ldr	r2, [pc, #340]	; (512d64 <application_start+0x16c>)
  512c10:	4955      	ldr	r1, [pc, #340]	; (512d68 <application_start+0x170>)
  512c12:	f8df 91d0 	ldr.w	r9, [pc, #464]	; 512de4 <application_start+0x1ec>
  512c16:	4b55      	ldr	r3, [pc, #340]	; (512d6c <application_start+0x174>)
  512c18:	4855      	ldr	r0, [pc, #340]	; (512d70 <application_start+0x178>)
  512c1a:	f8df 81cc 	ldr.w	r8, [pc, #460]	; 512de8 <application_start+0x1f0>
  512c1e:	f8df a1cc 	ldr.w	sl, [pc, #460]	; 512dec <application_start+0x1f4>
  512c22:	f8df b1cc 	ldr.w	fp, [pc, #460]	; 512df0 <application_start+0x1f8>
  512c26:	4d53      	ldr	r5, [pc, #332]	; (512d74 <application_start+0x17c>)
  512c28:	4798      	blx	r3
  512c2a:	2304      	movs	r3, #4
  512c2c:	f889 3000 	strb.w	r3, [r9]
  512c30:	2308      	movs	r3, #8
  512c32:	f888 3000 	strb.w	r3, [r8]
  512c36:	230a      	movs	r3, #10
  512c38:	f88a 3000 	strb.w	r3, [sl]
  512c3c:	2310      	movs	r3, #16
  512c3e:	f88b 3000 	strb.w	r3, [fp]
  512c42:	484d      	ldr	r0, [pc, #308]	; (512d78 <application_start+0x180>)
  512c44:	4b4d      	ldr	r3, [pc, #308]	; (512d7c <application_start+0x184>)
  512c46:	4798      	blx	r3
  512c48:	4606      	mov	r6, r0
  512c4a:	f241 300f 	movw	r0, #4879	; 0x130f
  512c4e:	47a8      	blx	r5
  512c50:	f643 77ff 	movw	r7, #16383	; 0x3fff
  512c54:	1a38      	subs	r0, r7, r0
  512c56:	4b4a      	ldr	r3, [pc, #296]	; (512d80 <application_start+0x188>)
  512c58:	b284      	uxth	r4, r0
  512c5a:	f241 3007 	movw	r0, #4871	; 0x1307
  512c5e:	801c      	strh	r4, [r3, #0]
  512c60:	47a8      	blx	r5
  512c62:	4b48      	ldr	r3, [pc, #288]	; (512d84 <application_start+0x18c>)
  512c64:	1a24      	subs	r4, r4, r0
  512c66:	b2a4      	uxth	r4, r4
  512c68:	f241 3003 	movw	r0, #4867	; 0x1303
  512c6c:	801c      	strh	r4, [r3, #0]
  512c6e:	47a8      	blx	r5
  512c70:	4b45      	ldr	r3, [pc, #276]	; (512d88 <application_start+0x190>)
  512c72:	1a24      	subs	r4, r4, r0
  512c74:	b2a4      	uxth	r4, r4
  512c76:	f241 300c 	movw	r0, #4876	; 0x130c
  512c7a:	801c      	strh	r4, [r3, #0]
  512c7c:	47a8      	blx	r5
  512c7e:	4b43      	ldr	r3, [pc, #268]	; (512d8c <application_start+0x194>)
  512c80:	1a24      	subs	r4, r4, r0
  512c82:	b2a4      	uxth	r4, r4
  512c84:	f44f 5098 	mov.w	r0, #4864	; 0x1300
  512c88:	801c      	strh	r4, [r3, #0]
  512c8a:	47a8      	blx	r5
  512c8c:	4b40      	ldr	r3, [pc, #256]	; (512d90 <application_start+0x198>)
  512c8e:	1a24      	subs	r4, r4, r0
  512c90:	b2a4      	uxth	r4, r4
  512c92:	f241 0009 	movw	r0, #4105	; 0x1009
  512c96:	801c      	strh	r4, [r3, #0]
  512c98:	47a8      	blx	r5
  512c9a:	4b3e      	ldr	r3, [pc, #248]	; (512d94 <application_start+0x19c>)
  512c9c:	1a24      	subs	r4, r4, r0
  512c9e:	b2a4      	uxth	r4, r4
  512ca0:	f241 0006 	movw	r0, #4102	; 0x1006
  512ca4:	801c      	strh	r4, [r3, #0]
  512ca6:	47a8      	blx	r5
  512ca8:	4a3b      	ldr	r2, [pc, #236]	; (512d98 <application_start+0x1a0>)
  512caa:	1a20      	subs	r0, r4, r0
  512cac:	b283      	uxth	r3, r0
  512cae:	8013      	strh	r3, [r2, #0]
  512cb0:	4a3a      	ldr	r2, [pc, #232]	; (512d9c <application_start+0x1a4>)
  512cb2:	f898 0000 	ldrb.w	r0, [r8]
  512cb6:	4c3a      	ldr	r4, [pc, #232]	; (512da0 <application_start+0x1a8>)
  512cb8:	3b01      	subs	r3, #1
  512cba:	b29b      	uxth	r3, r3
  512cbc:	8013      	strh	r3, [r2, #0]
  512cbe:	f89b 2000 	ldrb.w	r2, [fp]
  512cc2:	1a9b      	subs	r3, r3, r2
  512cc4:	4a37      	ldr	r2, [pc, #220]	; (512da4 <application_start+0x1ac>)
  512cc6:	b29b      	uxth	r3, r3
  512cc8:	8013      	strh	r3, [r2, #0]
  512cca:	4a37      	ldr	r2, [pc, #220]	; (512da8 <application_start+0x1b0>)
  512ccc:	3b01      	subs	r3, #1
  512cce:	b29b      	uxth	r3, r3
  512cd0:	8013      	strh	r3, [r2, #0]
  512cd2:	f89a 2000 	ldrb.w	r2, [sl]
  512cd6:	1a9b      	subs	r3, r3, r2
  512cd8:	4a34      	ldr	r2, [pc, #208]	; (512dac <application_start+0x1b4>)
  512cda:	b29b      	uxth	r3, r3
  512cdc:	8013      	strh	r3, [r2, #0]
  512cde:	4a34      	ldr	r2, [pc, #208]	; (512db0 <application_start+0x1b8>)
  512ce0:	1e59      	subs	r1, r3, #1
  512ce2:	8011      	strh	r1, [r2, #0]
  512ce4:	4a33      	ldr	r2, [pc, #204]	; (512db4 <application_start+0x1bc>)
  512ce6:	1e99      	subs	r1, r3, #2
  512ce8:	8011      	strh	r1, [r2, #0]
  512cea:	4a33      	ldr	r2, [pc, #204]	; (512db8 <application_start+0x1c0>)
  512cec:	1ed9      	subs	r1, r3, #3
  512cee:	8011      	strh	r1, [r2, #0]
  512cf0:	1f1a      	subs	r2, r3, #4
  512cf2:	4b32      	ldr	r3, [pc, #200]	; (512dbc <application_start+0x1c4>)
  512cf4:	4932      	ldr	r1, [pc, #200]	; (512dc0 <application_start+0x1c8>)
  512cf6:	b292      	uxth	r2, r2
  512cf8:	801a      	strh	r2, [r3, #0]
  512cfa:	f899 3000 	ldrb.w	r3, [r9]
  512cfe:	1ad2      	subs	r2, r2, r3
  512d00:	b292      	uxth	r2, r2
  512d02:	800a      	strh	r2, [r1, #0]
  512d04:	1a12      	subs	r2, r2, r0
  512d06:	492f      	ldr	r1, [pc, #188]	; (512dc4 <application_start+0x1cc>)
  512d08:	b292      	uxth	r2, r2
  512d0a:	800a      	strh	r2, [r1, #0]
  512d0c:	492e      	ldr	r1, [pc, #184]	; (512dc8 <application_start+0x1d0>)
  512d0e:	3a01      	subs	r2, #1
  512d10:	b292      	uxth	r2, r2
  512d12:	800a      	strh	r2, [r1, #0]
  512d14:	36fe      	adds	r6, #254	; 0xfe
  512d16:	f06f 01fe 	mvn.w	r1, #254	; 0xfe
  512d1a:	fb96 f6f1 	sdiv	r6, r6, r1
  512d1e:	492b      	ldr	r1, [pc, #172]	; (512dcc <application_start+0x1d4>)
  512d20:	4432      	add	r2, r6
  512d22:	b292      	uxth	r2, r2
  512d24:	800a      	strh	r2, [r1, #0]
  512d26:	1e51      	subs	r1, r2, #1
  512d28:	b289      	uxth	r1, r1
  512d2a:	8021      	strh	r1, [r4, #0]
  512d2c:	e9cd 0100 	strd	r0, r1, [sp]
  512d30:	2100      	movs	r1, #0
  512d32:	e9cd 2702 	strd	r2, r7, [sp, #8]
  512d36:	4c26      	ldr	r4, [pc, #152]	; (512dd0 <application_start+0x1d8>)
  512d38:	4a26      	ldr	r2, [pc, #152]	; (512dd4 <application_start+0x1dc>)
  512d3a:	4608      	mov	r0, r1
  512d3c:	47a0      	blx	r4
  512d3e:	2100      	movs	r1, #0
  512d40:	4a25      	ldr	r2, [pc, #148]	; (512dd8 <application_start+0x1e0>)
  512d42:	4608      	mov	r0, r1
  512d44:	4623      	mov	r3, r4
  512d46:	b005      	add	sp, #20
  512d48:	e8bd 4ff0 	ldmia.w	sp!, {r4, r5, r6, r7, r8, r9, sl, fp, lr}
  512d4c:	4718      	bx	r3
  512d4e:	230d      	movs	r3, #13
  512d50:	4922      	ldr	r1, [pc, #136]	; (512ddc <application_start+0x1e4>)
  512d52:	4c23      	ldr	r4, [pc, #140]	; (512de0 <application_start+0x1e8>)
  512d54:	4610      	mov	r0, r2
  512d56:	47a0      	blx	r4
  512d58:	e759      	b.n	512c0e <application_start+0x16>
  512d5a:	bf00      	nop
  512d5c:	00512505 	.word	0x00512505
  512d60:	0020feb0 	.word	0x0020feb0
  512d64:	00525206 	.word	0x00525206
  512d68:	0020fd94 	.word	0x0020fd94
  512d6c:	0003f17f 	.word	0x0003f17f
  512d70:	00513389 	.word	0x00513389
  512d74:	00512865 	.word	0x00512865
  512d78:	0020fe74 	.word	0x0020fe74
  512d7c:	0051c389 	.word	0x0051c389
  512d80:	00210b5c 	.word	0x00210b5c
  512d84:	00210b52 	.word	0x00210b52
  512d88:	00210b50 	.word	0x00210b50
  512d8c:	00210b54 	.word	0x00210b54
  512d90:	00210b4e 	.word	0x00210b4e
  512d94:	00210b4c 	.word	0x00210b4c
  512d98:	00210b4a 	.word	0x00210b4a
  512d9c:	00210b48 	.word	0x00210b48
  512da0:	002103fc 	.word	0x002103fc
  512da4:	00210bf4 	.word	0x00210bf4
  512da8:	00210b9c 	.word	0x00210b9c
  512dac:	00210b98 	.word	0x00210b98
  512db0:	00210bf0 	.word	0x00210bf0
  512db4:	0021088e 	.word	0x0021088e
  512db8:	0021082e 	.word	0x0021082e
  512dbc:	002107a0 	.word	0x002107a0
  512dc0:	00210830 	.word	0x00210830
  512dc4:	002108a2 	.word	0x002108a2
  512dc8:	002108a0 	.word	0x002108a0
  512dcc:	0021088c 	.word	0x0021088c
  512dd0:	000d3259 	.word	0x000d3259
  512dd4:	00525ad5 	.word	0x00525ad5
  512dd8:	00525b22 	.word	0x00525b22
  512ddc:	00512e2d 	.word	0x00512e2d
  512de0:	00511d61 	.word	0x00511d61
  512de4:	00205e61 	.word	0x00205e61
  512de8:	00205eec 	.word	0x00205eec
  512dec:	00210b9a 	.word	0x00210b9a
  512df0:	00210bf6 	.word	0x00210bf6

00512df4 <mesh_application_factory_reset>:
  512df4:	2100      	movs	r1, #0
  512df6:	b508      	push	{r3, lr}
  512df8:	4a07      	ldr	r2, [pc, #28]	; (512e18 <mesh_application_factory_reset+0x24>)
  512dfa:	4b08      	ldr	r3, [pc, #32]	; (512e1c <mesh_application_factory_reset+0x28>)
  512dfc:	4608      	mov	r0, r1
  512dfe:	4798      	blx	r3
  512e00:	4b07      	ldr	r3, [pc, #28]	; (512e20 <mesh_application_factory_reset+0x2c>)
  512e02:	69db      	ldr	r3, [r3, #28]
  512e04:	b103      	cbz	r3, 512e08 <mesh_application_factory_reset+0x14>
  512e06:	4798      	blx	r3
  512e08:	4b06      	ldr	r3, [pc, #24]	; (512e24 <mesh_application_factory_reset+0x30>)
  512e0a:	2000      	movs	r0, #0
  512e0c:	4798      	blx	r3
  512e0e:	4b06      	ldr	r3, [pc, #24]	; (512e28 <mesh_application_factory_reset+0x34>)
  512e10:	2200      	movs	r2, #0
  512e12:	e9c3 2202 	strd	r2, r2, [r3, #8]
  512e16:	bd08      	pop	{r3, pc}
  512e18:	00525b2e 	.word	0x00525b2e
  512e1c:	000d3259 	.word	0x000d3259
  512e20:	0020feb0 	.word	0x0020feb0
  512e24:	00515efd 	.word	0x00515efd
  512e28:	00210034 	.word	0x00210034

00512e2c <mesh_interrupt_handler>:
  512e2c:	b510      	push	{r4, lr}
  512e2e:	4608      	mov	r0, r1
  512e30:	4b03      	ldr	r3, [pc, #12]	; (512e40 <mesh_interrupt_handler+0x14>)
  512e32:	4798      	blx	r3
  512e34:	b118      	cbz	r0, 512e3e <mesh_interrupt_handler+0x12>
  512e36:	4b03      	ldr	r3, [pc, #12]	; (512e44 <mesh_interrupt_handler+0x18>)
  512e38:	e8bd 4010 	ldmia.w	sp!, {r4, lr}
  512e3c:	4718      	bx	r3
  512e3e:	bd10      	pop	{r4, pc}
  512e40:	00083343 	.word	0x00083343
  512e44:	00512df5 	.word	0x00512df5

00512e48 <mesh_state_changed_cb>:
  512e48:	e92d 41f0 	stmdb	sp!, {r4, r5, r6, r7, r8, lr}
  512e4c:	460c      	mov	r4, r1
  512e4e:	b088      	sub	sp, #32
  512e50:	2812      	cmp	r0, #18
  512e52:	d82d      	bhi.n	512eb0 <mesh_state_changed_cb+0x68>
  512e54:	e8df f010 	tbh	[pc, r0, lsl #1]
  512e58:	002c002f 	.word	0x002c002f
  512e5c:	002c002c 	.word	0x002c002c
  512e60:	002c002c 	.word	0x002c002c
  512e64:	002c002c 	.word	0x002c002c
  512e68:	002c002c 	.word	0x002c002c
  512e6c:	002c002c 	.word	0x002c002c
  512e70:	009d002c 	.word	0x009d002c
  512e74:	00df00c7 	.word	0x00df00c7
  512e78:	00ee00d4 	.word	0x00ee00d4
  512e7c:	0013      	.short	0x0013
  512e7e:	4c72      	ldr	r4, [pc, #456]	; (513048 <mesh_state_changed_cb+0x200>)
  512e80:	4a72      	ldr	r2, [pc, #456]	; (51304c <mesh_state_changed_cb+0x204>)
  512e82:	8aa3      	ldrh	r3, [r4, #20]
  512e84:	4d72      	ldr	r5, [pc, #456]	; (513050 <mesh_state_changed_cb+0x208>)
  512e86:	2100      	movs	r1, #0
  512e88:	4608      	mov	r0, r1
  512e8a:	47a8      	blx	r5
  512e8c:	4871      	ldr	r0, [pc, #452]	; (513054 <mesh_state_changed_cb+0x20c>)
  512e8e:	2300      	movs	r3, #0
  512e90:	7523      	strb	r3, [r4, #20]
  512e92:	7563      	strb	r3, [r4, #21]
  512e94:	f104 0210 	add.w	r2, r4, #16
  512e98:	ab06      	add	r3, sp, #24
  512e9a:	2106      	movs	r1, #6
  512e9c:	8800      	ldrh	r0, [r0, #0]
  512e9e:	4c6e      	ldr	r4, [pc, #440]	; (513058 <mesh_state_changed_cb+0x210>)
  512ea0:	47a0      	blx	r4
  512ea2:	2806      	cmp	r0, #6
  512ea4:	d102      	bne.n	512eac <mesh_state_changed_cb+0x64>
  512ea6:	f8bd 3018 	ldrh.w	r3, [sp, #24]
  512eaa:	b10b      	cbz	r3, 512eb0 <mesh_state_changed_cb+0x68>
  512eac:	4b6b      	ldr	r3, [pc, #428]	; (51305c <mesh_state_changed_cb+0x214>)
  512eae:	4798      	blx	r3
  512eb0:	b008      	add	sp, #32
  512eb2:	e8bd 81f0 	ldmia.w	sp!, {r4, r5, r6, r7, r8, pc}
  512eb6:	880b      	ldrh	r3, [r1, #0]
  512eb8:	b9fb      	cbnz	r3, 512efa <mesh_state_changed_cb+0xb2>
  512eba:	6849      	ldr	r1, [r1, #4]
  512ebc:	4a62      	ldr	r2, [pc, #392]	; (513048 <mesh_state_changed_cb+0x200>)
  512ebe:	f44f 707a 	mov.w	r0, #1000	; 0x3e8
  512ec2:	fbb1 f3f0 	udiv	r3, r1, r0
  512ec6:	fb00 1313 	mls	r3, r0, r3, r1
  512eca:	6111      	str	r1, [r2, #16]
  512ecc:	b96b      	cbnz	r3, 512eea <mesh_state_changed_cb+0xa2>
  512ece:	4861      	ldr	r0, [pc, #388]	; (513054 <mesh_state_changed_cb+0x20c>)
  512ed0:	4d61      	ldr	r5, [pc, #388]	; (513058 <mesh_state_changed_cb+0x210>)
  512ed2:	8800      	ldrh	r0, [r0, #0]
  512ed4:	f10d 0316 	add.w	r3, sp, #22
  512ed8:	3210      	adds	r2, #16
  512eda:	2106      	movs	r1, #6
  512edc:	47a8      	blx	r5
  512ede:	2806      	cmp	r0, #6
  512ee0:	d1e4      	bne.n	512eac <mesh_state_changed_cb+0x64>
  512ee2:	f8bd 3016 	ldrh.w	r3, [sp, #22]
  512ee6:	2b00      	cmp	r3, #0
  512ee8:	d1e0      	bne.n	512eac <mesh_state_changed_cb+0x64>
  512eea:	4b57      	ldr	r3, [pc, #348]	; (513048 <mesh_state_changed_cb+0x200>)
  512eec:	699b      	ldr	r3, [r3, #24]
  512eee:	2b00      	cmp	r3, #0
  512ef0:	d0de      	beq.n	512eb0 <mesh_state_changed_cb+0x68>
  512ef2:	4b5b      	ldr	r3, [pc, #364]	; (513060 <mesh_state_changed_cb+0x218>)
  512ef4:	4620      	mov	r0, r4
  512ef6:	4798      	blx	r3
  512ef8:	e7da      	b.n	512eb0 <mesh_state_changed_cb+0x68>
  512efa:	4d56      	ldr	r5, [pc, #344]	; (513054 <mesh_state_changed_cb+0x20c>)
  512efc:	4e56      	ldr	r6, [pc, #344]	; (513058 <mesh_state_changed_cb+0x210>)
  512efe:	8828      	ldrh	r0, [r5, #0]
  512f00:	f64f 72ff 	movw	r2, #65535	; 0xffff
  512f04:	4293      	cmp	r3, r2
  512f06:	d109      	bne.n	512f1c <mesh_state_changed_cb+0xd4>
  512f08:	4a4f      	ldr	r2, [pc, #316]	; (513048 <mesh_state_changed_cb+0x200>)
  512f0a:	2300      	movs	r3, #0
  512f0c:	7513      	strb	r3, [r2, #20]
  512f0e:	7553      	strb	r3, [r2, #21]
  512f10:	f10d 0316 	add.w	r3, sp, #22
  512f14:	3210      	adds	r2, #16
  512f16:	2106      	movs	r1, #6
  512f18:	47b0      	blx	r6
  512f1a:	e7e0      	b.n	512ede <mesh_state_changed_cb+0x96>
  512f1c:	7a0a      	ldrb	r2, [r1, #8]
  512f1e:	f8ad 3018 	strh.w	r3, [sp, #24]
  512f22:	b12a      	cbz	r2, 512f30 <mesh_state_changed_cb+0xe8>
  512f24:	ea6f 4343 	mvn.w	r3, r3, lsl #17
  512f28:	ea6f 4353 	mvn.w	r3, r3, lsr #17
  512f2c:	f8ad 3018 	strh.w	r3, [sp, #24]
  512f30:	6863      	ldr	r3, [r4, #4]
  512f32:	f88d 301a 	strb.w	r3, [sp, #26]
  512f36:	0a1a      	lsrs	r2, r3, #8
  512f38:	0c1b      	lsrs	r3, r3, #16
  512f3a:	f88d 301c 	strb.w	r3, [sp, #28]
  512f3e:	8963      	ldrh	r3, [r4, #10]
  512f40:	f88d 201b 	strb.w	r2, [sp, #27]
  512f44:	3801      	subs	r0, #1
  512f46:	1ac0      	subs	r0, r0, r3
  512f48:	aa06      	add	r2, sp, #24
  512f4a:	f10d 0316 	add.w	r3, sp, #22
  512f4e:	2105      	movs	r1, #5
  512f50:	b280      	uxth	r0, r0
  512f52:	47b0      	blx	r6
  512f54:	2805      	cmp	r0, #5
  512f56:	d1a9      	bne.n	512eac <mesh_state_changed_cb+0x64>
  512f58:	f8bd 3016 	ldrh.w	r3, [sp, #22]
  512f5c:	2b00      	cmp	r3, #0
  512f5e:	d1a5      	bne.n	512eac <mesh_state_changed_cb+0x64>
  512f60:	4f39      	ldr	r7, [pc, #228]	; (513048 <mesh_state_changed_cb+0x200>)
  512f62:	8962      	ldrh	r2, [r4, #10]
  512f64:	8abb      	ldrh	r3, [r7, #20]
  512f66:	429a      	cmp	r2, r3
  512f68:	d3bf      	bcc.n	512eea <mesh_state_changed_cb+0xa2>
  512f6a:	f8df 8128 	ldr.w	r8, [pc, #296]	; 513094 <mesh_state_changed_cb+0x24c>
  512f6e:	8abb      	ldrh	r3, [r7, #20]
  512f70:	8962      	ldrh	r2, [r4, #10]
  512f72:	8828      	ldrh	r0, [r5, #0]
  512f74:	429a      	cmp	r2, r3
  512f76:	d803      	bhi.n	512f80 <mesh_state_changed_cb+0x138>
  512f78:	f10d 0316 	add.w	r3, sp, #22
  512f7c:	4a39      	ldr	r2, [pc, #228]	; (513064 <mesh_state_changed_cb+0x21c>)
  512f7e:	e7ca      	b.n	512f16 <mesh_state_changed_cb+0xce>
  512f80:	3801      	subs	r0, #1
  512f82:	1ac0      	subs	r0, r0, r3
  512f84:	1c5a      	adds	r2, r3, #1
  512f86:	f10d 0116 	add.w	r1, sp, #22
  512f8a:	b280      	uxth	r0, r0
  512f8c:	82ba      	strh	r2, [r7, #20]
  512f8e:	47c0      	blx	r8
  512f90:	e7ed      	b.n	512f6e <mesh_state_changed_cb+0x126>
  512f92:	688b      	ldr	r3, [r1, #8]
  512f94:	9302      	str	r3, [sp, #8]
  512f96:	684b      	ldr	r3, [r1, #4]
  512f98:	9301      	str	r3, [sp, #4]
  512f9a:	680b      	ldr	r3, [r1, #0]
  512f9c:	4d2a      	ldr	r5, [pc, #168]	; (513048 <mesh_state_changed_cb+0x200>)
  512f9e:	9300      	str	r3, [sp, #0]
  512fa0:	2100      	movs	r1, #0
  512fa2:	68eb      	ldr	r3, [r5, #12]
  512fa4:	4a30      	ldr	r2, [pc, #192]	; (513068 <mesh_state_changed_cb+0x220>)
  512fa6:	4e2a      	ldr	r6, [pc, #168]	; (513050 <mesh_state_changed_cb+0x208>)
  512fa8:	4608      	mov	r0, r1
  512faa:	47b0      	blx	r6
  512fac:	68a3      	ldr	r3, [r4, #8]
  512fae:	4a2f      	ldr	r2, [pc, #188]	; (51306c <mesh_state_changed_cb+0x224>)
  512fb0:	60ab      	str	r3, [r5, #8]
  512fb2:	8a12      	ldrh	r2, [r2, #16]
  512fb4:	0752      	lsls	r2, r2, #29
  512fb6:	d50b      	bpl.n	512fd0 <mesh_state_changed_cb+0x188>
  512fb8:	68ea      	ldr	r2, [r5, #12]
  512fba:	b94a      	cbnz	r2, 512fd0 <mesh_state_changed_cb+0x188>
  512fbc:	6822      	ldr	r2, [r4, #0]
  512fbe:	b902      	cbnz	r2, 512fc2 <mesh_state_changed_cb+0x17a>
  512fc0:	b133      	cbz	r3, 512fd0 <mesh_state_changed_cb+0x188>
  512fc2:	2100      	movs	r1, #0
  512fc4:	4608      	mov	r0, r1
  512fc6:	4e2a      	ldr	r6, [pc, #168]	; (513070 <mesh_state_changed_cb+0x228>)
  512fc8:	47b0      	blx	r6
  512fca:	2100      	movs	r1, #0
  512fcc:	2001      	movs	r0, #1
  512fce:	47b0      	blx	r6
  512fd0:	6820      	ldr	r0, [r4, #0]
  512fd2:	4b28      	ldr	r3, [pc, #160]	; (513074 <mesh_state_changed_cb+0x22c>)
  512fd4:	60e8      	str	r0, [r5, #12]
  512fd6:	4798      	blx	r3
  512fd8:	4b27      	ldr	r3, [pc, #156]	; (513078 <mesh_state_changed_cb+0x230>)
  512fda:	681b      	ldr	r3, [r3, #0]
  512fdc:	2b00      	cmp	r3, #0
  512fde:	f43f af67 	beq.w	512eb0 <mesh_state_changed_cb+0x68>
  512fe2:	68e8      	ldr	r0, [r5, #12]
  512fe4:	e787      	b.n	512ef6 <mesh_state_changed_cb+0xae>
  512fe6:	4b25      	ldr	r3, [pc, #148]	; (51307c <mesh_state_changed_cb+0x234>)
  512fe8:	680d      	ldr	r5, [r1, #0]
  512fea:	888c      	ldrh	r4, [r1, #4]
  512fec:	4798      	blx	r3
  512fee:	2100      	movs	r1, #0
  512ff0:	e9cd 4000 	strd	r4, r0, [sp]
  512ff4:	462b      	mov	r3, r5
  512ff6:	4a22      	ldr	r2, [pc, #136]	; (513080 <mesh_state_changed_cb+0x238>)
  512ff8:	4c15      	ldr	r4, [pc, #84]	; (513050 <mesh_state_changed_cb+0x208>)
  512ffa:	4608      	mov	r0, r1
  512ffc:	47a0      	blx	r4
  512ffe:	e757      	b.n	512eb0 <mesh_state_changed_cb+0x68>
  513000:	680b      	ldr	r3, [r1, #0]
  513002:	4a20      	ldr	r2, [pc, #128]	; (513084 <mesh_state_changed_cb+0x23c>)
  513004:	4d12      	ldr	r5, [pc, #72]	; (513050 <mesh_state_changed_cb+0x208>)
  513006:	2100      	movs	r1, #0
  513008:	4608      	mov	r0, r1
  51300a:	47a8      	blx	r5
  51300c:	2100      	movs	r1, #0
  51300e:	6820      	ldr	r0, [r4, #0]
  513010:	4b17      	ldr	r3, [pc, #92]	; (513070 <mesh_state_changed_cb+0x228>)
  513012:	4798      	blx	r3
  513014:	e74c      	b.n	512eb0 <mesh_state_changed_cb+0x68>
  513016:	680b      	ldr	r3, [r1, #0]
  513018:	4a1b      	ldr	r2, [pc, #108]	; (513088 <mesh_state_changed_cb+0x240>)
  51301a:	4d0d      	ldr	r5, [pc, #52]	; (513050 <mesh_state_changed_cb+0x208>)
  51301c:	2100      	movs	r1, #0
  51301e:	4608      	mov	r0, r1
  513020:	47a8      	blx	r5
  513022:	4b1a      	ldr	r3, [pc, #104]	; (51308c <mesh_state_changed_cb+0x244>)
  513024:	4798      	blx	r3
  513026:	4b14      	ldr	r3, [pc, #80]	; (513078 <mesh_state_changed_cb+0x230>)
  513028:	699b      	ldr	r3, [r3, #24]
  51302a:	2b00      	cmp	r3, #0
  51302c:	f43f af40 	beq.w	512eb0 <mesh_state_changed_cb+0x68>
  513030:	6820      	ldr	r0, [r4, #0]
  513032:	e760      	b.n	512ef6 <mesh_state_changed_cb+0xae>
  513034:	888b      	ldrh	r3, [r1, #4]
  513036:	9300      	str	r3, [sp, #0]
  513038:	680b      	ldr	r3, [r1, #0]
  51303a:	4a15      	ldr	r2, [pc, #84]	; (513090 <mesh_state_changed_cb+0x248>)
  51303c:	4c04      	ldr	r4, [pc, #16]	; (513050 <mesh_state_changed_cb+0x208>)
  51303e:	2100      	movs	r1, #0
  513040:	4608      	mov	r0, r1
  513042:	47a0      	blx	r4
  513044:	e734      	b.n	512eb0 <mesh_state_changed_cb+0x68>
  513046:	bf00      	nop
  513048:	00210034 	.word	0x00210034
  51304c:	00525b69 	.word	0x00525b69
  513050:	000d3259 	.word	0x000d3259
  513054:	002103fc 	.word	0x002103fc
  513058:	0008a597 	.word	0x0008a597
  51305c:	00512df5 	.word	0x00512df5
  513060:	0051264d 	.word	0x0051264d
  513064:	00210044 	.word	0x00210044
  513068:	00525b7d 	.word	0x00525b7d
  51306c:	0020fe74 	.word	0x0020fe74
  513070:	005129e1 	.word	0x005129e1
  513074:	00512145 	.word	0x00512145
  513078:	0020feb0 	.word	0x0020feb0
  51307c:	00520e3d 	.word	0x00520e3d
  513080:	00525bcb 	.word	0x00525bcb
  513084:	00525c0c 	.word	0x00525c0c
  513088:	00525c35 	.word	0x00525c35
  51308c:	0051268d 	.word	0x0051268d
  513090:	00525c62 	.word	0x00525c62
  513094:	0008a5cd 	.word	0x0008a5cd

00513098 <mesh_application_init>:
  513098:	e92d 4ff0 	stmdb	sp!, {r4, r5, r6, r7, r8, r9, sl, fp, lr}
  51309c:	b097      	sub	sp, #92	; 0x5c
  51309e:	2240      	movs	r2, #64	; 0x40
  5130a0:	2100      	movs	r1, #0
  5130a2:	4b8f      	ldr	r3, [pc, #572]	; (5132e0 <mesh_application_init+0x248>)
  5130a4:	4f8f      	ldr	r7, [pc, #572]	; (5132e4 <mesh_application_init+0x24c>)
  5130a6:	4e90      	ldr	r6, [pc, #576]	; (5132e8 <mesh_application_init+0x250>)
  5130a8:	4c90      	ldr	r4, [pc, #576]	; (5132ec <mesh_application_init+0x254>)
  5130aa:	4d91      	ldr	r5, [pc, #580]	; (5132f0 <mesh_application_init+0x258>)
  5130ac:	a806      	add	r0, sp, #24
  5130ae:	4798      	blx	r3
  5130b0:	47b8      	blx	r7
  5130b2:	2100      	movs	r1, #0
  5130b4:	4a8f      	ldr	r2, [pc, #572]	; (5132f4 <mesh_application_init+0x25c>)
  5130b6:	4603      	mov	r3, r0
  5130b8:	4608      	mov	r0, r1
  5130ba:	47b0      	blx	r6
  5130bc:	4b8e      	ldr	r3, [pc, #568]	; (5132f8 <mesh_application_init+0x260>)
  5130be:	4798      	blx	r3
  5130c0:	2100      	movs	r1, #0
  5130c2:	4608      	mov	r0, r1
  5130c4:	4b8d      	ldr	r3, [pc, #564]	; (5132fc <mesh_application_init+0x264>)
  5130c6:	4798      	blx	r3
  5130c8:	4b8d      	ldr	r3, [pc, #564]	; (513300 <mesh_application_init+0x268>)
  5130ca:	2001      	movs	r0, #1
  5130cc:	4798      	blx	r3
  5130ce:	3000      	adds	r0, #0
  5130d0:	bf18      	it	ne
  5130d2:	2001      	movne	r0, #1
  5130d4:	61a0      	str	r0, [r4, #24]
  5130d6:	ab03      	add	r3, sp, #12
  5130d8:	aa06      	add	r2, sp, #24
  5130da:	2110      	movs	r1, #16
  5130dc:	f240 2002 	movw	r0, #514	; 0x202
  5130e0:	47a8      	blx	r5
  5130e2:	2810      	cmp	r0, #16
  5130e4:	f000 80a8 	beq.w	513238 <mesh_application_init+0x1a0>
  5130e8:	f8df 9288 	ldr.w	r9, [pc, #648]	; 513374 <mesh_application_init+0x2dc>
  5130ec:	f8df 8288 	ldr.w	r8, [pc, #648]	; 513378 <mesh_application_init+0x2e0>
  5130f0:	f44f 65fa 	mov.w	r5, #2000	; 0x7d0
  5130f4:	f44f 707a 	mov.w	r0, #1000	; 0x3e8
  5130f8:	47c8      	blx	r9
  5130fa:	47c0      	blx	r8
  5130fc:	3d01      	subs	r5, #1
  5130fe:	d1f9      	bne.n	5130f4 <mesh_application_init+0x5c>
  513100:	f8df 8278 	ldr.w	r8, [pc, #632]	; 51337c <mesh_application_init+0x2e4>
  513104:	f8df 9264 	ldr.w	r9, [pc, #612]	; 51336c <mesh_application_init+0x2d4>
  513108:	47c0      	blx	r8
  51310a:	9004      	str	r0, [sp, #16]
  51310c:	47c0      	blx	r8
  51310e:	2206      	movs	r2, #6
  513110:	a904      	add	r1, sp, #16
  513112:	9005      	str	r0, [sp, #20]
  513114:	a80a      	add	r0, sp, #40	; 0x28
  513116:	47c8      	blx	r9
  513118:	f89d 3028 	ldrb.w	r3, [sp, #40]	; 0x28
  51311c:	f063 033f 	orn	r3, r3, #63	; 0x3f
  513120:	f88d 3028 	strb.w	r3, [sp, #40]	; 0x28
  513124:	47c0      	blx	r8
  513126:	9004      	str	r0, [sp, #16]
  513128:	47c0      	blx	r8
  51312a:	f10d 0a2e 	add.w	sl, sp, #46	; 0x2e
  51312e:	9005      	str	r0, [sp, #20]
  513130:	2206      	movs	r2, #6
  513132:	a904      	add	r1, sp, #16
  513134:	4650      	mov	r0, sl
  513136:	47c8      	blx	r9
  513138:	f89d 302e 	ldrb.w	r3, [sp, #46]	; 0x2e
  51313c:	4a71      	ldr	r2, [pc, #452]	; (513304 <mesh_application_init+0x26c>)
  51313e:	f8cd a000 	str.w	sl, [sp]
  513142:	f063 033f 	orn	r3, r3, #63	; 0x3f
  513146:	f88d 302e 	strb.w	r3, [sp, #46]	; 0x2e
  51314a:	4629      	mov	r1, r5
  51314c:	ab0a      	add	r3, sp, #40	; 0x28
  51314e:	4628      	mov	r0, r5
  513150:	47b0      	blx	r6
  513152:	2206      	movs	r2, #6
  513154:	a90a      	add	r1, sp, #40	; 0x28
  513156:	a806      	add	r0, sp, #24
  513158:	47c8      	blx	r9
  51315a:	2206      	movs	r2, #6
  51315c:	4651      	mov	r1, sl
  51315e:	f10d 001e 	add.w	r0, sp, #30
  513162:	47c8      	blx	r9
  513164:	47c0      	blx	r8
  513166:	ab03      	add	r3, sp, #12
  513168:	9009      	str	r0, [sp, #36]	; 0x24
  51316a:	aa06      	add	r2, sp, #24
  51316c:	2110      	movs	r1, #16
  51316e:	f240 2002 	movw	r0, #514	; 0x202
  513172:	f8df 81fc 	ldr.w	r8, [pc, #508]	; 513370 <mesh_application_init+0x2d8>
  513176:	47c0      	blx	r8
  513178:	f8bd 300c 	ldrh.w	r3, [sp, #12]
  51317c:	4a62      	ldr	r2, [pc, #392]	; (513308 <mesh_application_init+0x270>)
  51317e:	4629      	mov	r1, r5
  513180:	4628      	mov	r0, r5
  513182:	47b0      	blx	r6
  513184:	4629      	mov	r1, r5
  513186:	4a61      	ldr	r2, [pc, #388]	; (51330c <mesh_application_init+0x274>)
  513188:	4628      	mov	r0, r5
  51318a:	47b0      	blx	r6
  51318c:	2110      	movs	r1, #16
  51318e:	a806      	add	r0, sp, #24
  513190:	4b5f      	ldr	r3, [pc, #380]	; (513310 <mesh_application_init+0x278>)
  513192:	4798      	blx	r3
  513194:	4b5f      	ldr	r3, [pc, #380]	; (513314 <mesh_application_init+0x27c>)
  513196:	4d60      	ldr	r5, [pc, #384]	; (513318 <mesh_application_init+0x280>)
  513198:	f8df a1e4 	ldr.w	sl, [pc, #484]	; 513380 <mesh_application_init+0x2e8>
  51319c:	2200      	movs	r2, #0
  51319e:	701a      	strb	r2, [r3, #0]
  5131a0:	4b5e      	ldr	r3, [pc, #376]	; (51331c <mesh_application_init+0x284>)
  5131a2:	8a1a      	ldrh	r2, [r3, #16]
  5131a4:	930d      	str	r3, [sp, #52]	; 0x34
  5131a6:	f042 0210 	orr.w	r2, r2, #16
  5131aa:	821a      	strh	r2, [r3, #16]
  5131ac:	4b5c      	ldr	r3, [pc, #368]	; (513320 <mesh_application_init+0x288>)
  5131ae:	930e      	str	r3, [sp, #56]	; 0x38
  5131b0:	4b5c      	ldr	r3, [pc, #368]	; (513324 <mesh_application_init+0x28c>)
  5131b2:	930f      	str	r3, [sp, #60]	; 0x3c
  5131b4:	4b5c      	ldr	r3, [pc, #368]	; (513328 <mesh_application_init+0x290>)
  5131b6:	9311      	str	r3, [sp, #68]	; 0x44
  5131b8:	4b5c      	ldr	r3, [pc, #368]	; (51332c <mesh_application_init+0x294>)
  5131ba:	9312      	str	r3, [sp, #72]	; 0x48
  5131bc:	4b5c      	ldr	r3, [pc, #368]	; (513330 <mesh_application_init+0x298>)
  5131be:	9313      	str	r3, [sp, #76]	; 0x4c
  5131c0:	68eb      	ldr	r3, [r5, #12]
  5131c2:	9314      	str	r3, [sp, #80]	; 0x50
  5131c4:	4b5b      	ldr	r3, [pc, #364]	; (513334 <mesh_application_init+0x29c>)
  5131c6:	9315      	str	r3, [sp, #84]	; 0x54
  5131c8:	4b5b      	ldr	r3, [pc, #364]	; (513338 <mesh_application_init+0x2a0>)
  5131ca:	9310      	str	r3, [sp, #64]	; 0x40
  5131cc:	a806      	add	r0, sp, #24
  5131ce:	4b5b      	ldr	r3, [pc, #364]	; (51333c <mesh_application_init+0x2a4>)
  5131d0:	4798      	blx	r3
  5131d2:	fab0 f080 	clz	r0, r0
  5131d6:	0940      	lsrs	r0, r0, #5
  5131d8:	4b59      	ldr	r3, [pc, #356]	; (513340 <mesh_application_init+0x2a8>)
  5131da:	60e0      	str	r0, [r4, #12]
  5131dc:	4798      	blx	r3
  5131de:	68e3      	ldr	r3, [r4, #12]
  5131e0:	46a8      	mov	r8, r5
  5131e2:	2b00      	cmp	r3, #0
  5131e4:	d03c      	beq.n	513260 <mesh_application_init+0x1c8>
  5131e6:	f10d 030e 	add.w	r3, sp, #14
  5131ea:	4a56      	ldr	r2, [pc, #344]	; (513344 <mesh_application_init+0x2ac>)
  5131ec:	f8ba 0000 	ldrh.w	r0, [sl]
  5131f0:	4d3f      	ldr	r5, [pc, #252]	; (5132f0 <mesh_application_init+0x258>)
  5131f2:	2106      	movs	r1, #6
  5131f4:	47a8      	blx	r5
  5131f6:	2806      	cmp	r0, #6
  5131f8:	d02a      	beq.n	513250 <mesh_application_init+0x1b8>
  5131fa:	4b53      	ldr	r3, [pc, #332]	; (513348 <mesh_application_init+0x2b0>)
  5131fc:	4798      	blx	r3
  5131fe:	4953      	ldr	r1, [pc, #332]	; (51334c <mesh_application_init+0x2b4>)
  513200:	4a53      	ldr	r2, [pc, #332]	; (513350 <mesh_application_init+0x2b8>)
  513202:	4b54      	ldr	r3, [pc, #336]	; (513354 <mesh_application_init+0x2bc>)
  513204:	2000      	movs	r0, #0
  513206:	4798      	blx	r3
  513208:	4601      	mov	r1, r0
  51320a:	b908      	cbnz	r0, 513210 <mesh_application_init+0x178>
  51320c:	4a52      	ldr	r2, [pc, #328]	; (513358 <mesh_application_init+0x2c0>)
  51320e:	47b0      	blx	r6
  513210:	4b52      	ldr	r3, [pc, #328]	; (51335c <mesh_application_init+0x2c4>)
  513212:	4853      	ldr	r0, [pc, #332]	; (513360 <mesh_application_init+0x2c8>)
  513214:	2100      	movs	r1, #0
  513216:	4798      	blx	r3
  513218:	f8d8 3000 	ldr.w	r3, [r8]
  51321c:	b10b      	cbz	r3, 513222 <mesh_application_init+0x18a>
  51321e:	68e0      	ldr	r0, [r4, #12]
  513220:	4798      	blx	r3
  513222:	4b50      	ldr	r3, [pc, #320]	; (513364 <mesh_application_init+0x2cc>)
  513224:	4798      	blx	r3
  513226:	47b8      	blx	r7
  513228:	2100      	movs	r1, #0
  51322a:	4603      	mov	r3, r0
  51322c:	4a4e      	ldr	r2, [pc, #312]	; (513368 <mesh_application_init+0x2d0>)
  51322e:	4608      	mov	r0, r1
  513230:	47b0      	blx	r6
  513232:	b017      	add	sp, #92	; 0x5c
  513234:	e8bd 8ff0 	ldmia.w	sp!, {r4, r5, r6, r7, r8, r9, sl, fp, pc}
  513238:	a906      	add	r1, sp, #24
  51323a:	2206      	movs	r2, #6
  51323c:	a80a      	add	r0, sp, #40	; 0x28
  51323e:	4d4b      	ldr	r5, [pc, #300]	; (51336c <mesh_application_init+0x2d4>)
  513240:	47a8      	blx	r5
  513242:	2206      	movs	r2, #6
  513244:	f10d 011e 	add.w	r1, sp, #30
  513248:	f10d 002e 	add.w	r0, sp, #46	; 0x2e
  51324c:	47a8      	blx	r5
  51324e:	e7a1      	b.n	513194 <mesh_application_init+0xfc>
  513250:	f8bd 300e 	ldrh.w	r3, [sp, #14]
  513254:	2b00      	cmp	r3, #0
  513256:	d1d0      	bne.n	5131fa <mesh_application_init+0x162>
  513258:	6923      	ldr	r3, [r4, #16]
  51325a:	f503 737a 	add.w	r3, r3, #1000	; 0x3e8
  51325e:	6123      	str	r3, [r4, #16]
  513260:	f10d 030e 	add.w	r3, sp, #14
  513264:	4a37      	ldr	r2, [pc, #220]	; (513344 <mesh_application_init+0x2ac>)
  513266:	f8ba 0000 	ldrh.w	r0, [sl]
  51326a:	4d41      	ldr	r5, [pc, #260]	; (513370 <mesh_application_init+0x2d8>)
  51326c:	2106      	movs	r1, #6
  51326e:	47a8      	blx	r5
  513270:	2806      	cmp	r0, #6
  513272:	d1c2      	bne.n	5131fa <mesh_application_init+0x162>
  513274:	f8bd 500e 	ldrh.w	r5, [sp, #14]
  513278:	2d00      	cmp	r5, #0
  51327a:	d1be      	bne.n	5131fa <mesh_application_init+0x162>
  51327c:	462a      	mov	r2, r5
  51327e:	6921      	ldr	r1, [r4, #16]
  513280:	f8df 9100 	ldr.w	r9, [pc, #256]	; 513384 <mesh_application_init+0x2ec>
  513284:	4628      	mov	r0, r5
  513286:	47c8      	blx	r9
  513288:	2800      	cmp	r0, #0
  51328a:	d0b6      	beq.n	5131fa <mesh_application_init+0x162>
  51328c:	f8df b060 	ldr.w	fp, [pc, #96]	; 5132f0 <mesh_application_init+0x258>
  513290:	8aa3      	ldrh	r3, [r4, #20]
  513292:	429d      	cmp	r5, r3
  513294:	d2b3      	bcs.n	5131fe <mesh_application_init+0x166>
  513296:	f8ba 0000 	ldrh.w	r0, [sl]
  51329a:	3801      	subs	r0, #1
  51329c:	1b40      	subs	r0, r0, r5
  51329e:	f10d 030e 	add.w	r3, sp, #14
  5132a2:	aa04      	add	r2, sp, #16
  5132a4:	2105      	movs	r1, #5
  5132a6:	b280      	uxth	r0, r0
  5132a8:	47d8      	blx	fp
  5132aa:	2805      	cmp	r0, #5
  5132ac:	d001      	beq.n	5132b2 <mesh_application_init+0x21a>
  5132ae:	3501      	adds	r5, #1
  5132b0:	e7ee      	b.n	513290 <mesh_application_init+0x1f8>
  5132b2:	f8bd 300e 	ldrh.w	r3, [sp, #14]
  5132b6:	2b00      	cmp	r3, #0
  5132b8:	d1f9      	bne.n	5132ae <mesh_application_init+0x216>
  5132ba:	f89d 3014 	ldrb.w	r3, [sp, #20]
  5132be:	f89d 1013 	ldrb.w	r1, [sp, #19]
  5132c2:	f8bd 0010 	ldrh.w	r0, [sp, #16]
  5132c6:	041b      	lsls	r3, r3, #16
  5132c8:	eb03 2301 	add.w	r3, r3, r1, lsl #8
  5132cc:	f89d 1012 	ldrb.w	r1, [sp, #18]
  5132d0:	0bc2      	lsrs	r2, r0, #15
  5132d2:	4419      	add	r1, r3
  5132d4:	f3c0 000e 	ubfx	r0, r0, #0, #15
  5132d8:	47c8      	blx	r9
  5132da:	2800      	cmp	r0, #0
  5132dc:	d1e7      	bne.n	5132ae <mesh_application_init+0x216>
  5132de:	e78c      	b.n	5131fa <mesh_application_init+0x162>
  5132e0:	00006d41 	.word	0x00006d41
  5132e4:	00050dc1 	.word	0x00050dc1
  5132e8:	000d3259 	.word	0x000d3259
  5132ec:	00210034 	.word	0x00210034
  5132f0:	0008a5b3 	.word	0x0008a5b3
  5132f4:	00525ca1 	.word	0x00525ca1
  5132f8:	0051211d 	.word	0x0051211d
  5132fc:	00082ecb 	.word	0x00082ecb
  513300:	00512865 	.word	0x00512865
  513304:	00525ccc 	.word	0x00525ccc
  513308:	00525d01 	.word	0x00525d01
  51330c:	00526569 	.word	0x00526569
  513310:	000d2e27 	.word	0x000d2e27
  513314:	0020ffce 	.word	0x0020ffce
  513318:	0020feb0 	.word	0x0020feb0
  51331c:	0020fe74 	.word	0x0020fe74
  513320:	005128d1 	.word	0x005128d1
  513324:	00512b11 	.word	0x00512b11
  513328:	005123e9 	.word	0x005123e9
  51332c:	00512a75 	.word	0x00512a75
  513330:	00512aad 	.word	0x00512aad
  513334:	00512e49 	.word	0x00512e49
  513338:	005129e1 	.word	0x005129e1
  51333c:	00515efd 	.word	0x00515efd
  513340:	00512145 	.word	0x00512145
  513344:	00210044 	.word	0x00210044
  513348:	00512df5 	.word	0x00512df5
  51334c:	005128b5 	.word	0x005128b5
  513350:	00512091 	.word	0x00512091
  513354:	005146ed 	.word	0x005146ed
  513358:	00525d12 	.word	0x00525d12
  51335c:	0051282d 	.word	0x0051282d
  513360:	0020fd74 	.word	0x0020fd74
  513364:	00514e7d 	.word	0x00514e7d
  513368:	00525d4b 	.word	0x00525d4b
  51336c:	00006d31 	.word	0x00006d31
  513370:	0008a597 	.word	0x0008a597
  513374:	000236cf 	.word	0x000236cf
  513378:	000d3903 	.word	0x000d3903
  51337c:	000835f5 	.word	0x000835f5
  513380:	002103fc 	.word	0x002103fc
  513384:	00515a51 	.word	0x00515a51

00513388 <mesh_management_cback>:
  513388:	2813      	cmp	r0, #19
  51338a:	b538      	push	{r3, r4, r5, lr}
  51338c:	460d      	mov	r5, r1
  51338e:	d01d      	beq.n	5133cc <mesh_management_cback+0x44>
  513390:	d802      	bhi.n	513398 <mesh_management_cback+0x10>
  513392:	b1f0      	cbz	r0, 5133d2 <mesh_management_cback+0x4a>
  513394:	2000      	movs	r0, #0
  513396:	e01b      	b.n	5133d0 <mesh_management_cback+0x48>
  513398:	2816      	cmp	r0, #22
  51339a:	d01d      	beq.n	5133d8 <mesh_management_cback+0x50>
  51339c:	2817      	cmp	r0, #23
  51339e:	d1f9      	bne.n	513394 <mesh_management_cback+0xc>
  5133a0:	780b      	ldrb	r3, [r1, #0]
  5133a2:	4a11      	ldr	r2, [pc, #68]	; (5133e8 <mesh_management_cback+0x60>)
  5133a4:	4c11      	ldr	r4, [pc, #68]	; (5133ec <mesh_management_cback+0x64>)
  5133a6:	2100      	movs	r1, #0
  5133a8:	4608      	mov	r0, r1
  5133aa:	47a0      	blx	r4
  5133ac:	7829      	ldrb	r1, [r5, #0]
  5133ae:	2900      	cmp	r1, #0
  5133b0:	d1f0      	bne.n	513394 <mesh_management_cback+0xc>
  5133b2:	4a0f      	ldr	r2, [pc, #60]	; (5133f0 <mesh_management_cback+0x68>)
  5133b4:	4608      	mov	r0, r1
  5133b6:	47a0      	blx	r4
  5133b8:	4b0e      	ldr	r3, [pc, #56]	; (5133f4 <mesh_management_cback+0x6c>)
  5133ba:	4798      	blx	r3
  5133bc:	2800      	cmp	r0, #0
  5133be:	d1e9      	bne.n	513394 <mesh_management_cback+0xc>
  5133c0:	2314      	movs	r3, #20
  5133c2:	4602      	mov	r2, r0
  5133c4:	4601      	mov	r1, r0
  5133c6:	4d0c      	ldr	r5, [pc, #48]	; (5133f8 <mesh_management_cback+0x70>)
  5133c8:	47a8      	blx	r5
  5133ca:	e7e3      	b.n	513394 <mesh_management_cback+0xc>
  5133cc:	f641 70ad 	movw	r0, #8109	; 0x1fad
  5133d0:	bd38      	pop	{r3, r4, r5, pc}
  5133d2:	4b0a      	ldr	r3, [pc, #40]	; (5133fc <mesh_management_cback+0x74>)
  5133d4:	4798      	blx	r3
  5133d6:	e7dd      	b.n	513394 <mesh_management_cback+0xc>
  5133d8:	780b      	ldrb	r3, [r1, #0]
  5133da:	4a09      	ldr	r2, [pc, #36]	; (513400 <mesh_management_cback+0x78>)
  5133dc:	4c03      	ldr	r4, [pc, #12]	; (5133ec <mesh_management_cback+0x64>)
  5133de:	2100      	movs	r1, #0
  5133e0:	4608      	mov	r0, r1
  5133e2:	47a0      	blx	r4
  5133e4:	e7d6      	b.n	513394 <mesh_management_cback+0xc>
  5133e6:	bf00      	nop
  5133e8:	00525d6d 	.word	0x00525d6d
  5133ec:	000d3259 	.word	0x000d3259
  5133f0:	00525d8d 	.word	0x00525d8d
  5133f4:	005123d9 	.word	0x005123d9
  5133f8:	00514eb9 	.word	0x00514eb9
  5133fc:	00513099 	.word	0x00513099
  513400:	00525d9a 	.word	0x00525d9a

00513404 <mesh_app_node_is_provisioned>:
  513404:	4b01      	ldr	r3, [pc, #4]	; (51340c <mesh_app_node_is_provisioned+0x8>)
  513406:	68d8      	ldr	r0, [r3, #12]
  513408:	4770      	bx	lr
  51340a:	bf00      	nop
  51340c:	00210034 	.word	0x00210034

00513410 <ECC_Add_>:
  513410:	e92d 4ff0 	stmdb	sp!, {r4, r5, r6, r7, r8, r9, sl, fp, lr}
  513414:	4e52      	ldr	r6, [pc, #328]	; (513560 <ECC_Add_+0x150>)
  513416:	b087      	sub	sp, #28
  513418:	4607      	mov	r7, r0
  51341a:	2020      	movs	r0, #32
  51341c:	461c      	mov	r4, r3
  51341e:	e9cd 1202 	strd	r1, r2, [sp, #8]
  513422:	47b0      	blx	r6
  513424:	4605      	mov	r5, r0
  513426:	2020      	movs	r0, #32
  513428:	47b0      	blx	r6
  51342a:	4682      	mov	sl, r0
  51342c:	2020      	movs	r0, #32
  51342e:	47b0      	blx	r6
  513430:	4683      	mov	fp, r0
  513432:	2020      	movs	r0, #32
  513434:	47b0      	blx	r6
  513436:	9b02      	ldr	r3, [sp, #8]
  513438:	3340      	adds	r3, #64	; 0x40
  51343a:	4606      	mov	r6, r0
  51343c:	9301      	str	r3, [sp, #4]
  51343e:	4618      	mov	r0, r3
  513440:	4621      	mov	r1, r4
  513442:	4b48      	ldr	r3, [pc, #288]	; (513564 <ECC_Add_+0x154>)
  513444:	4798      	blx	r3
  513446:	b120      	cbz	r0, 513452 <ECC_Add_+0x42>
  513448:	9903      	ldr	r1, [sp, #12]
  51344a:	4b47      	ldr	r3, [pc, #284]	; (513568 <ECC_Add_+0x158>)
  51344c:	4638      	mov	r0, r7
  51344e:	4798      	blx	r3
  513450:	e037      	b.n	5134c2 <ECC_Add_+0xb2>
  513452:	9b02      	ldr	r3, [sp, #8]
  513454:	9901      	ldr	r1, [sp, #4]
  513456:	f8df 9128 	ldr.w	r9, [pc, #296]	; 513580 <ECC_Add_+0x170>
  51345a:	f8df 8128 	ldr.w	r8, [pc, #296]	; 513584 <ECC_Add_+0x174>
  51345e:	3320      	adds	r3, #32
  513460:	9304      	str	r3, [sp, #16]
  513462:	f107 0340 	add.w	r3, r7, #64	; 0x40
  513466:	9305      	str	r3, [sp, #20]
  513468:	4622      	mov	r2, r4
  51346a:	4628      	mov	r0, r5
  51346c:	4b3f      	ldr	r3, [pc, #252]	; (51356c <ECC_Add_+0x15c>)
  51346e:	4798      	blx	r3
  513470:	4623      	mov	r3, r4
  513472:	462a      	mov	r2, r5
  513474:	9901      	ldr	r1, [sp, #4]
  513476:	4650      	mov	r0, sl
  513478:	47c8      	blx	r9
  51347a:	4623      	mov	r3, r4
  51347c:	462a      	mov	r2, r5
  51347e:	9903      	ldr	r1, [sp, #12]
  513480:	4628      	mov	r0, r5
  513482:	47c8      	blx	r9
  513484:	9903      	ldr	r1, [sp, #12]
  513486:	4623      	mov	r3, r4
  513488:	4652      	mov	r2, sl
  51348a:	3120      	adds	r1, #32
  51348c:	4650      	mov	r0, sl
  51348e:	47c8      	blx	r9
  513490:	4623      	mov	r3, r4
  513492:	9a02      	ldr	r2, [sp, #8]
  513494:	4629      	mov	r1, r5
  513496:	4628      	mov	r0, r5
  513498:	47c0      	blx	r8
  51349a:	4623      	mov	r3, r4
  51349c:	4651      	mov	r1, sl
  51349e:	4650      	mov	r0, sl
  5134a0:	9a04      	ldr	r2, [sp, #16]
  5134a2:	47c0      	blx	r8
  5134a4:	4621      	mov	r1, r4
  5134a6:	4628      	mov	r0, r5
  5134a8:	4b2e      	ldr	r3, [pc, #184]	; (513564 <ECC_Add_+0x154>)
  5134aa:	4798      	blx	r3
  5134ac:	b1d0      	cbz	r0, 5134e4 <ECC_Add_+0xd4>
  5134ae:	4621      	mov	r1, r4
  5134b0:	4650      	mov	r0, sl
  5134b2:	4b2c      	ldr	r3, [pc, #176]	; (513564 <ECC_Add_+0x154>)
  5134b4:	4798      	blx	r3
  5134b6:	b188      	cbz	r0, 5134dc <ECC_Add_+0xcc>
  5134b8:	4622      	mov	r2, r4
  5134ba:	9903      	ldr	r1, [sp, #12]
  5134bc:	4b2c      	ldr	r3, [pc, #176]	; (513570 <ECC_Add_+0x160>)
  5134be:	4638      	mov	r0, r7
  5134c0:	4798      	blx	r3
  5134c2:	4c2c      	ldr	r4, [pc, #176]	; (513574 <ECC_Add_+0x164>)
  5134c4:	4628      	mov	r0, r5
  5134c6:	47a0      	blx	r4
  5134c8:	4650      	mov	r0, sl
  5134ca:	47a0      	blx	r4
  5134cc:	4658      	mov	r0, fp
  5134ce:	47a0      	blx	r4
  5134d0:	4630      	mov	r0, r6
  5134d2:	4623      	mov	r3, r4
  5134d4:	b007      	add	sp, #28
  5134d6:	e8bd 4ff0 	ldmia.w	sp!, {r4, r5, r6, r7, r8, r9, sl, fp, lr}
  5134da:	4718      	bx	r3
  5134dc:	4621      	mov	r1, r4
  5134de:	9805      	ldr	r0, [sp, #20]
  5134e0:	4b25      	ldr	r3, [pc, #148]	; (513578 <ECC_Add_+0x168>)
  5134e2:	e7b4      	b.n	51344e <ECC_Add_+0x3e>
  5134e4:	4623      	mov	r3, r4
  5134e6:	462a      	mov	r2, r5
  5134e8:	9901      	ldr	r1, [sp, #4]
  5134ea:	9805      	ldr	r0, [sp, #20]
  5134ec:	47c8      	blx	r9
  5134ee:	4622      	mov	r2, r4
  5134f0:	4629      	mov	r1, r5
  5134f2:	4630      	mov	r0, r6
  5134f4:	4b1d      	ldr	r3, [pc, #116]	; (51356c <ECC_Add_+0x15c>)
  5134f6:	4798      	blx	r3
  5134f8:	4623      	mov	r3, r4
  5134fa:	462a      	mov	r2, r5
  5134fc:	4631      	mov	r1, r6
  5134fe:	4658      	mov	r0, fp
  513500:	47c8      	blx	r9
  513502:	4623      	mov	r3, r4
  513504:	9a02      	ldr	r2, [sp, #8]
  513506:	4631      	mov	r1, r6
  513508:	4630      	mov	r0, r6
  51350a:	47c8      	blx	r9
  51350c:	4622      	mov	r2, r4
  51350e:	4631      	mov	r1, r6
  513510:	4628      	mov	r0, r5
  513512:	4b1a      	ldr	r3, [pc, #104]	; (51357c <ECC_Add_+0x16c>)
  513514:	4798      	blx	r3
  513516:	4622      	mov	r2, r4
  513518:	4651      	mov	r1, sl
  51351a:	4638      	mov	r0, r7
  51351c:	4b13      	ldr	r3, [pc, #76]	; (51356c <ECC_Add_+0x15c>)
  51351e:	4798      	blx	r3
  513520:	4623      	mov	r3, r4
  513522:	462a      	mov	r2, r5
  513524:	4639      	mov	r1, r7
  513526:	4638      	mov	r0, r7
  513528:	47c0      	blx	r8
  51352a:	4623      	mov	r3, r4
  51352c:	465a      	mov	r2, fp
  51352e:	4639      	mov	r1, r7
  513530:	4638      	mov	r0, r7
  513532:	47c0      	blx	r8
  513534:	4623      	mov	r3, r4
  513536:	463a      	mov	r2, r7
  513538:	4631      	mov	r1, r6
  51353a:	4630      	mov	r0, r6
  51353c:	47c0      	blx	r8
  51353e:	4623      	mov	r3, r4
  513540:	4652      	mov	r2, sl
  513542:	4631      	mov	r1, r6
  513544:	4630      	mov	r0, r6
  513546:	47c8      	blx	r9
  513548:	4623      	mov	r3, r4
  51354a:	9a04      	ldr	r2, [sp, #16]
  51354c:	4659      	mov	r1, fp
  51354e:	4658      	mov	r0, fp
  513550:	47c8      	blx	r9
  513552:	4623      	mov	r3, r4
  513554:	465a      	mov	r2, fp
  513556:	4631      	mov	r1, r6
  513558:	f107 0020 	add.w	r0, r7, #32
  51355c:	47c0      	blx	r8
  51355e:	e7b0      	b.n	5134c2 <ECC_Add_+0xb2>
  513560:	00050d61 	.word	0x00050d61
  513564:	00067e2f 	.word	0x00067e2f
  513568:	000b6edf 	.word	0x000b6edf
  51356c:	00067eff 	.word	0x00067eff
  513570:	000b6ee5 	.word	0x000b6ee5
  513574:	00050d65 	.word	0x00050d65
  513578:	00067dbd 	.word	0x00067dbd
  51357c:	00067ec9 	.word	0x00067ec9
  513580:	00067eed 	.word	0x00067eed
  513584:	00067f23 	.word	0x00067f23

00513588 <MP_InvMod_>:
  513588:	e92d 4ff7 	stmdb	sp!, {r0, r1, r2, r4, r5, r6, r7, r8, r9, sl, fp, lr}
  51358c:	4c5f      	ldr	r4, [pc, #380]	; (51370c <MP_InvMod_+0x184>)
  51358e:	9000      	str	r0, [sp, #0]
  513590:	2020      	movs	r0, #32
  513592:	4688      	mov	r8, r1
  513594:	4691      	mov	r9, r2
  513596:	461d      	mov	r5, r3
  513598:	47a0      	blx	r4
  51359a:	4607      	mov	r7, r0
  51359c:	2024      	movs	r0, #36	; 0x24
  51359e:	47a0      	blx	r4
  5135a0:	4606      	mov	r6, r0
  5135a2:	2024      	movs	r0, #36	; 0x24
  5135a4:	47a0      	blx	r4
  5135a6:	4604      	mov	r4, r0
  5135a8:	b10f      	cbz	r7, 5135ae <MP_InvMod_+0x26>
  5135aa:	b106      	cbz	r6, 5135ae <MP_InvMod_+0x26>
  5135ac:	b938      	cbnz	r0, 5135be <MP_InvMod_+0x36>
  5135ae:	2100      	movs	r1, #0
  5135b0:	4a57      	ldr	r2, [pc, #348]	; (513710 <MP_InvMod_+0x188>)
  5135b2:	4b58      	ldr	r3, [pc, #352]	; (513714 <MP_InvMod_+0x18c>)
  5135b4:	4608      	mov	r0, r1
  5135b6:	b003      	add	sp, #12
  5135b8:	e8bd 4ff0 	ldmia.w	sp!, {r4, r5, r6, r7, r8, r9, sl, fp, lr}
  5135bc:	4718      	bx	r3
  5135be:	462a      	mov	r2, r5
  5135c0:	f8df a164 	ldr.w	sl, [pc, #356]	; 513728 <MP_InvMod_+0x1a0>
  5135c4:	f8df b164 	ldr.w	fp, [pc, #356]	; 51372c <MP_InvMod_+0x1a4>
  5135c8:	4649      	mov	r1, r9
  5135ca:	4638      	mov	r0, r7
  5135cc:	47d0      	blx	sl
  5135ce:	4629      	mov	r1, r5
  5135d0:	4630      	mov	r0, r6
  5135d2:	47d8      	blx	fp
  5135d4:	4629      	mov	r1, r5
  5135d6:	4620      	mov	r0, r4
  5135d8:	47d8      	blx	fp
  5135da:	2301      	movs	r3, #1
  5135dc:	f8cd a004 	str.w	sl, [sp, #4]
  5135e0:	f8df a14c 	ldr.w	sl, [pc, #332]	; 513730 <MP_InvMod_+0x1a8>
  5135e4:	6033      	str	r3, [r6, #0]
  5135e6:	4629      	mov	r1, r5
  5135e8:	4640      	mov	r0, r8
  5135ea:	4b4b      	ldr	r3, [pc, #300]	; (513718 <MP_InvMod_+0x190>)
  5135ec:	4798      	blx	r3
  5135ee:	2800      	cmp	r0, #0
  5135f0:	d16d      	bne.n	5136ce <MP_InvMod_+0x146>
  5135f2:	f8df b140 	ldr.w	fp, [pc, #320]	; 513734 <MP_InvMod_+0x1ac>
  5135f6:	e00a      	b.n	51360e <MP_InvMod_+0x86>
  5135f8:	4640      	mov	r0, r8
  5135fa:	462a      	mov	r2, r5
  5135fc:	4641      	mov	r1, r8
  5135fe:	47d0      	blx	sl
  513600:	6833      	ldr	r3, [r6, #0]
  513602:	07d8      	lsls	r0, r3, #31
  513604:	d429      	bmi.n	51365a <MP_InvMod_+0xd2>
  513606:	462a      	mov	r2, r5
  513608:	4631      	mov	r1, r6
  51360a:	4630      	mov	r0, r6
  51360c:	47d0      	blx	sl
  51360e:	f8d8 3000 	ldr.w	r3, [r8]
  513612:	07d9      	lsls	r1, r3, #31
  513614:	d5f0      	bpl.n	5135f8 <MP_InvMod_+0x70>
  513616:	f8df b11c 	ldr.w	fp, [pc, #284]	; 513734 <MP_InvMod_+0x1ac>
  51361a:	683b      	ldr	r3, [r7, #0]
  51361c:	07db      	lsls	r3, r3, #31
  51361e:	462a      	mov	r2, r5
  513620:	4639      	mov	r1, r7
  513622:	d52a      	bpl.n	51367a <MP_InvMod_+0xf2>
  513624:	4b3d      	ldr	r3, [pc, #244]	; (51371c <MP_InvMod_+0x194>)
  513626:	f8df b0f8 	ldr.w	fp, [pc, #248]	; 513720 <MP_InvMod_+0x198>
  51362a:	4640      	mov	r0, r8
  51362c:	4798      	blx	r3
  51362e:	2800      	cmp	r0, #0
  513630:	462b      	mov	r3, r5
  513632:	db3c      	blt.n	5136ae <MP_InvMod_+0x126>
  513634:	463a      	mov	r2, r7
  513636:	4641      	mov	r1, r8
  513638:	4640      	mov	r0, r8
  51363a:	47d8      	blx	fp
  51363c:	462b      	mov	r3, r5
  51363e:	4622      	mov	r2, r4
  513640:	4631      	mov	r1, r6
  513642:	4630      	mov	r0, r6
  513644:	47d8      	blx	fp
  513646:	2800      	cmp	r0, #0
  513648:	d0cd      	beq.n	5135e6 <MP_InvMod_+0x5e>
  51364a:	462b      	mov	r3, r5
  51364c:	464a      	mov	r2, r9
  51364e:	4631      	mov	r1, r6
  513650:	4630      	mov	r0, r6
  513652:	f8df b0e0 	ldr.w	fp, [pc, #224]	; 513734 <MP_InvMod_+0x1ac>
  513656:	47d8      	blx	fp
  513658:	e7c5      	b.n	5135e6 <MP_InvMod_+0x5e>
  51365a:	462b      	mov	r3, r5
  51365c:	464a      	mov	r2, r9
  51365e:	4631      	mov	r1, r6
  513660:	4630      	mov	r0, r6
  513662:	47d8      	blx	fp
  513664:	462a      	mov	r2, r5
  513666:	6230      	str	r0, [r6, #32]
  513668:	4631      	mov	r1, r6
  51366a:	4630      	mov	r0, r6
  51366c:	47d0      	blx	sl
  51366e:	e9d6 3207 	ldrd	r3, r2, [r6, #28]
  513672:	ea43 73c2 	orr.w	r3, r3, r2, lsl #31
  513676:	61f3      	str	r3, [r6, #28]
  513678:	e7c9      	b.n	51360e <MP_InvMod_+0x86>
  51367a:	4638      	mov	r0, r7
  51367c:	47d0      	blx	sl
  51367e:	6823      	ldr	r3, [r4, #0]
  513680:	07da      	lsls	r2, r3, #31
  513682:	d404      	bmi.n	51368e <MP_InvMod_+0x106>
  513684:	462a      	mov	r2, r5
  513686:	4621      	mov	r1, r4
  513688:	4620      	mov	r0, r4
  51368a:	47d0      	blx	sl
  51368c:	e7c5      	b.n	51361a <MP_InvMod_+0x92>
  51368e:	462b      	mov	r3, r5
  513690:	464a      	mov	r2, r9
  513692:	4621      	mov	r1, r4
  513694:	4620      	mov	r0, r4
  513696:	47d8      	blx	fp
  513698:	462a      	mov	r2, r5
  51369a:	6220      	str	r0, [r4, #32]
  51369c:	4621      	mov	r1, r4
  51369e:	4620      	mov	r0, r4
  5136a0:	47d0      	blx	sl
  5136a2:	e9d4 3207 	ldrd	r3, r2, [r4, #28]
  5136a6:	ea43 73c2 	orr.w	r3, r3, r2, lsl #31
  5136aa:	61e3      	str	r3, [r4, #28]
  5136ac:	e7b5      	b.n	51361a <MP_InvMod_+0x92>
  5136ae:	4642      	mov	r2, r8
  5136b0:	4639      	mov	r1, r7
  5136b2:	4638      	mov	r0, r7
  5136b4:	47d8      	blx	fp
  5136b6:	462b      	mov	r3, r5
  5136b8:	4632      	mov	r2, r6
  5136ba:	4621      	mov	r1, r4
  5136bc:	4620      	mov	r0, r4
  5136be:	47d8      	blx	fp
  5136c0:	2800      	cmp	r0, #0
  5136c2:	d090      	beq.n	5135e6 <MP_InvMod_+0x5e>
  5136c4:	462b      	mov	r3, r5
  5136c6:	464a      	mov	r2, r9
  5136c8:	4621      	mov	r1, r4
  5136ca:	4620      	mov	r0, r4
  5136cc:	e7c1      	b.n	513652 <MP_InvMod_+0xca>
  5136ce:	462a      	mov	r2, r5
  5136d0:	4649      	mov	r1, r9
  5136d2:	4620      	mov	r0, r4
  5136d4:	4b11      	ldr	r3, [pc, #68]	; (51371c <MP_InvMod_+0x194>)
  5136d6:	4798      	blx	r3
  5136d8:	2800      	cmp	r0, #0
  5136da:	db10      	blt.n	5136fe <MP_InvMod_+0x176>
  5136dc:	462b      	mov	r3, r5
  5136de:	464a      	mov	r2, r9
  5136e0:	4621      	mov	r1, r4
  5136e2:	9800      	ldr	r0, [sp, #0]
  5136e4:	4d0e      	ldr	r5, [pc, #56]	; (513720 <MP_InvMod_+0x198>)
  5136e6:	47a8      	blx	r5
  5136e8:	4d0e      	ldr	r5, [pc, #56]	; (513724 <MP_InvMod_+0x19c>)
  5136ea:	4638      	mov	r0, r7
  5136ec:	47a8      	blx	r5
  5136ee:	4630      	mov	r0, r6
  5136f0:	47a8      	blx	r5
  5136f2:	4620      	mov	r0, r4
  5136f4:	462b      	mov	r3, r5
  5136f6:	b003      	add	sp, #12
  5136f8:	e8bd 4ff0 	ldmia.w	sp!, {r4, r5, r6, r7, r8, r9, sl, fp, lr}
  5136fc:	4718      	bx	r3
  5136fe:	462a      	mov	r2, r5
  513700:	4621      	mov	r1, r4
  513702:	e9dd 0300 	ldrd	r0, r3, [sp]
  513706:	4798      	blx	r3
  513708:	e7ee      	b.n	5136e8 <MP_InvMod_+0x160>
  51370a:	bf00      	nop
  51370c:	00050d61 	.word	0x00050d61
  513710:	00525db5 	.word	0x00525db5
  513714:	000d3259 	.word	0x000d3259
  513718:	00067e2f 	.word	0x00067e2f
  51371c:	00067dfb 	.word	0x00067dfb
  513720:	00067eaf 	.word	0x00067eaf
  513724:	00050d65 	.word	0x00050d65
  513728:	00067dd7 	.word	0x00067dd7
  51372c:	00067dbd 	.word	0x00067dbd
  513730:	00067edb 	.word	0x00067edb
  513734:	00067e95 	.word	0x00067e95

00513738 <ecdsa_verify_>:
  513738:	e92d 4ff0 	stmdb	sp!, {r4, r5, r6, r7, r8, r9, sl, fp, lr}
  51373c:	4f7a      	ldr	r7, [pc, #488]	; (513928 <ecdsa_verify_+0x1f0>)
  51373e:	b087      	sub	sp, #28
  513740:	4683      	mov	fp, r0
  513742:	2060      	movs	r0, #96	; 0x60
  513744:	e9cd 2104 	strd	r2, r1, [sp, #16]
  513748:	47b8      	blx	r7
  51374a:	4605      	mov	r5, r0
  51374c:	2060      	movs	r0, #96	; 0x60
  51374e:	47b8      	blx	r7
  513750:	9002      	str	r0, [sp, #8]
  513752:	2020      	movs	r0, #32
  513754:	47b8      	blx	r7
  513756:	9001      	str	r0, [sp, #4]
  513758:	2020      	movs	r0, #32
  51375a:	47b8      	blx	r7
  51375c:	4606      	mov	r6, r0
  51375e:	2020      	movs	r0, #32
  513760:	47b8      	blx	r7
  513762:	9003      	str	r0, [sp, #12]
  513764:	2020      	movs	r0, #32
  513766:	47b8      	blx	r7
  513768:	4681      	mov	r9, r0
  51376a:	2020      	movs	r0, #32
  51376c:	47b8      	blx	r7
  51376e:	4680      	mov	r8, r0
  513770:	2020      	movs	r0, #32
  513772:	47b8      	blx	r7
  513774:	4604      	mov	r4, r0
  513776:	2020      	movs	r0, #32
  513778:	47b8      	blx	r7
  51377a:	4682      	mov	sl, r0
  51377c:	b17d      	cbz	r5, 51379e <ecdsa_verify_+0x66>
  51377e:	9b02      	ldr	r3, [sp, #8]
  513780:	b16b      	cbz	r3, 51379e <ecdsa_verify_+0x66>
  513782:	9b01      	ldr	r3, [sp, #4]
  513784:	b15b      	cbz	r3, 51379e <ecdsa_verify_+0x66>
  513786:	b156      	cbz	r6, 51379e <ecdsa_verify_+0x66>
  513788:	9b03      	ldr	r3, [sp, #12]
  51378a:	b143      	cbz	r3, 51379e <ecdsa_verify_+0x66>
  51378c:	f1b9 0f00 	cmp.w	r9, #0
  513790:	d005      	beq.n	51379e <ecdsa_verify_+0x66>
  513792:	f1b8 0f00 	cmp.w	r8, #0
  513796:	d002      	beq.n	51379e <ecdsa_verify_+0x66>
  513798:	b10c      	cbz	r4, 51379e <ecdsa_verify_+0x66>
  51379a:	9905      	ldr	r1, [sp, #20]
  51379c:	b948      	cbnz	r0, 5137b2 <ecdsa_verify_+0x7a>
  51379e:	2100      	movs	r1, #0
  5137a0:	4a62      	ldr	r2, [pc, #392]	; (51392c <ecdsa_verify_+0x1f4>)
  5137a2:	4b63      	ldr	r3, [pc, #396]	; (513930 <ecdsa_verify_+0x1f8>)
  5137a4:	4608      	mov	r0, r1
  5137a6:	4798      	blx	r3
  5137a8:	2700      	movs	r7, #0
  5137aa:	4638      	mov	r0, r7
  5137ac:	b007      	add	sp, #28
  5137ae:	e8bd 8ff0 	ldmia.w	sp!, {r4, r5, r6, r7, r8, r9, sl, fp, pc}
  5137b2:	9b01      	ldr	r3, [sp, #4]
  5137b4:	f103 0220 	add.w	r2, r3, #32
  5137b8:	9b03      	ldr	r3, [sp, #12]
  5137ba:	f106 0020 	add.w	r0, r6, #32
  5137be:	f103 0e20 	add.w	lr, r3, #32
  5137c2:	f89b 3001 	ldrb.w	r3, [fp, #1]
  5137c6:	f89b c000 	ldrb.w	ip, [fp]
  5137ca:	041b      	lsls	r3, r3, #16
  5137cc:	ea43 670c 	orr.w	r7, r3, ip, lsl #24
  5137d0:	f89b 3003 	ldrb.w	r3, [fp, #3]
  5137d4:	433b      	orrs	r3, r7
  5137d6:	f89b 7002 	ldrb.w	r7, [fp, #2]
  5137da:	ea43 2307 	orr.w	r3, r3, r7, lsl #8
  5137de:	f842 3d04 	str.w	r3, [r2, #-4]!
  5137e2:	784b      	ldrb	r3, [r1, #1]
  5137e4:	f891 c000 	ldrb.w	ip, [r1]
  5137e8:	041b      	lsls	r3, r3, #16
  5137ea:	ea43 670c 	orr.w	r7, r3, ip, lsl #24
  5137ee:	78cb      	ldrb	r3, [r1, #3]
  5137f0:	433b      	orrs	r3, r7
  5137f2:	788f      	ldrb	r7, [r1, #2]
  5137f4:	ea43 2307 	orr.w	r3, r3, r7, lsl #8
  5137f8:	f840 3d04 	str.w	r3, [r0, #-4]!
  5137fc:	f891 3021 	ldrb.w	r3, [r1, #33]	; 0x21
  513800:	f891 c020 	ldrb.w	ip, [r1, #32]
  513804:	041b      	lsls	r3, r3, #16
  513806:	ea43 670c 	orr.w	r7, r3, ip, lsl #24
  51380a:	f891 3023 	ldrb.w	r3, [r1, #35]	; 0x23
  51380e:	433b      	orrs	r3, r7
  513810:	f891 7022 	ldrb.w	r7, [r1, #34]	; 0x22
  513814:	ea43 2307 	orr.w	r3, r3, r7, lsl #8
  513818:	f84e 3d04 	str.w	r3, [lr, #-4]!
  51381c:	9b01      	ldr	r3, [sp, #4]
  51381e:	4293      	cmp	r3, r2
  513820:	f10b 0b04 	add.w	fp, fp, #4
  513824:	f101 0104 	add.w	r1, r1, #4
  513828:	d1cb      	bne.n	5137c2 <ecdsa_verify_+0x8a>
  51382a:	2308      	movs	r3, #8
  51382c:	4a41      	ldr	r2, [pc, #260]	; (513934 <ecdsa_verify_+0x1fc>)
  51382e:	9903      	ldr	r1, [sp, #12]
  513830:	f8df b138 	ldr.w	fp, [pc, #312]	; 51396c <ecdsa_verify_+0x234>
  513834:	4f40      	ldr	r7, [pc, #256]	; (513938 <ecdsa_verify_+0x200>)
  513836:	4620      	mov	r0, r4
  513838:	47d8      	blx	fp
  51383a:	2308      	movs	r3, #8
  51383c:	4a3f      	ldr	r2, [pc, #252]	; (51393c <ecdsa_verify_+0x204>)
  51383e:	4621      	mov	r1, r4
  513840:	4650      	mov	r0, sl
  513842:	47b8      	blx	r7
  513844:	2308      	movs	r3, #8
  513846:	4a3d      	ldr	r2, [pc, #244]	; (51393c <ecdsa_verify_+0x204>)
  513848:	9901      	ldr	r1, [sp, #4]
  51384a:	4620      	mov	r0, r4
  51384c:	47b8      	blx	r7
  51384e:	2308      	movs	r3, #8
  513850:	4652      	mov	r2, sl
  513852:	4621      	mov	r1, r4
  513854:	4648      	mov	r0, r9
  513856:	47b8      	blx	r7
  513858:	2308      	movs	r3, #8
  51385a:	4a38      	ldr	r2, [pc, #224]	; (51393c <ecdsa_verify_+0x204>)
  51385c:	4631      	mov	r1, r6
  51385e:	4620      	mov	r0, r4
  513860:	47b8      	blx	r7
  513862:	4652      	mov	r2, sl
  513864:	2308      	movs	r3, #8
  513866:	4621      	mov	r1, r4
  513868:	4640      	mov	r0, r8
  51386a:	47b8      	blx	r7
  51386c:	2108      	movs	r1, #8
  51386e:	4620      	mov	r0, r4
  513870:	4b33      	ldr	r3, [pc, #204]	; (513940 <ecdsa_verify_+0x208>)
  513872:	4798      	blx	r3
  513874:	2301      	movs	r3, #1
  513876:	6023      	str	r3, [r4, #0]
  513878:	4622      	mov	r2, r4
  51387a:	2308      	movs	r3, #8
  51387c:	4649      	mov	r1, r9
  51387e:	4648      	mov	r0, r9
  513880:	47b8      	blx	r7
  513882:	2308      	movs	r3, #8
  513884:	4622      	mov	r2, r4
  513886:	4641      	mov	r1, r8
  513888:	4640      	mov	r0, r8
  51388a:	47b8      	blx	r7
  51388c:	9b04      	ldr	r3, [sp, #16]
  51388e:	b313      	cbz	r3, 5138d6 <ecdsa_verify_+0x19e>
  513890:	4f2c      	ldr	r7, [pc, #176]	; (513944 <ecdsa_verify_+0x20c>)
  513892:	492d      	ldr	r1, [pc, #180]	; (513948 <ecdsa_verify_+0x210>)
  513894:	2308      	movs	r3, #8
  513896:	464a      	mov	r2, r9
  513898:	4628      	mov	r0, r5
  51389a:	47b8      	blx	r7
  51389c:	2308      	movs	r3, #8
  51389e:	4642      	mov	r2, r8
  5138a0:	9904      	ldr	r1, [sp, #16]
  5138a2:	9802      	ldr	r0, [sp, #8]
  5138a4:	47b8      	blx	r7
  5138a6:	2308      	movs	r3, #8
  5138a8:	9a02      	ldr	r2, [sp, #8]
  5138aa:	4f28      	ldr	r7, [pc, #160]	; (51394c <ecdsa_verify_+0x214>)
  5138ac:	4629      	mov	r1, r5
  5138ae:	4628      	mov	r0, r5
  5138b0:	47b8      	blx	r7
  5138b2:	f105 0740 	add.w	r7, r5, #64	; 0x40
  5138b6:	4639      	mov	r1, r7
  5138b8:	2308      	movs	r3, #8
  5138ba:	4a25      	ldr	r2, [pc, #148]	; (513950 <ecdsa_verify_+0x218>)
  5138bc:	4620      	mov	r0, r4
  5138be:	47d8      	blx	fp
  5138c0:	4638      	mov	r0, r7
  5138c2:	2208      	movs	r2, #8
  5138c4:	4621      	mov	r1, r4
  5138c6:	4b23      	ldr	r3, [pc, #140]	; (513954 <ecdsa_verify_+0x21c>)
  5138c8:	4798      	blx	r3
  5138ca:	463a      	mov	r2, r7
  5138cc:	2308      	movs	r3, #8
  5138ce:	4629      	mov	r1, r5
  5138d0:	4628      	mov	r0, r5
  5138d2:	4f21      	ldr	r7, [pc, #132]	; (513958 <ecdsa_verify_+0x220>)
  5138d4:	47b8      	blx	r7
  5138d6:	2208      	movs	r2, #8
  5138d8:	491d      	ldr	r1, [pc, #116]	; (513950 <ecdsa_verify_+0x218>)
  5138da:	4b20      	ldr	r3, [pc, #128]	; (51395c <ecdsa_verify_+0x224>)
  5138dc:	4630      	mov	r0, r6
  5138de:	4798      	blx	r3
  5138e0:	2800      	cmp	r0, #0
  5138e2:	db05      	blt.n	5138f0 <ecdsa_verify_+0x1b8>
  5138e4:	2308      	movs	r3, #8
  5138e6:	4a1a      	ldr	r2, [pc, #104]	; (513950 <ecdsa_verify_+0x218>)
  5138e8:	4f1d      	ldr	r7, [pc, #116]	; (513960 <ecdsa_verify_+0x228>)
  5138ea:	4631      	mov	r1, r6
  5138ec:	4630      	mov	r0, r6
  5138ee:	47b8      	blx	r7
  5138f0:	4629      	mov	r1, r5
  5138f2:	2220      	movs	r2, #32
  5138f4:	4b1b      	ldr	r3, [pc, #108]	; (513964 <ecdsa_verify_+0x22c>)
  5138f6:	4630      	mov	r0, r6
  5138f8:	4798      	blx	r3
  5138fa:	fab0 f780 	clz	r7, r0
  5138fe:	4628      	mov	r0, r5
  513900:	4d19      	ldr	r5, [pc, #100]	; (513968 <ecdsa_verify_+0x230>)
  513902:	47a8      	blx	r5
  513904:	9802      	ldr	r0, [sp, #8]
  513906:	47a8      	blx	r5
  513908:	9801      	ldr	r0, [sp, #4]
  51390a:	47a8      	blx	r5
  51390c:	4630      	mov	r0, r6
  51390e:	47a8      	blx	r5
  513910:	9803      	ldr	r0, [sp, #12]
  513912:	47a8      	blx	r5
  513914:	4648      	mov	r0, r9
  513916:	47a8      	blx	r5
  513918:	4640      	mov	r0, r8
  51391a:	47a8      	blx	r5
  51391c:	4620      	mov	r0, r4
  51391e:	47a8      	blx	r5
  513920:	4650      	mov	r0, sl
  513922:	097f      	lsrs	r7, r7, #5
  513924:	47a8      	blx	r5
  513926:	e740      	b.n	5137aa <ecdsa_verify_+0x72>
  513928:	00050d61 	.word	0x00050d61
  51392c:	00525db5 	.word	0x00525db5
  513930:	000d3259 	.word	0x000d3259
  513934:	0020fe2c 	.word	0x0020fe2c
  513938:	0004762f 	.word	0x0004762f
  51393c:	0020fe4c 	.word	0x0020fe4c
  513940:	00067dbd 	.word	0x00067dbd
  513944:	000b7259 	.word	0x000b7259
  513948:	0020d8ac 	.word	0x0020d8ac
  51394c:	00513411 	.word	0x00513411
  513950:	0020d86c 	.word	0x0020d86c
  513954:	00067eff 	.word	0x00067eff
  513958:	00067eed 	.word	0x00067eed
  51395c:	00067dfb 	.word	0x00067dfb
  513960:	00067eaf 	.word	0x00067eaf
  513964:	0007dec9 	.word	0x0007dec9
  513968:	00050d65 	.word	0x00050d65
  51396c:	00513589 	.word	0x00513589

00513970 <wiced_firmware_upgrade_init>:
  513970:	b573      	push	{r0, r1, r4, r5, r6, lr}
  513972:	460e      	mov	r6, r1
  513974:	4604      	mov	r4, r0
  513976:	4d12      	ldr	r5, [pc, #72]	; (5139c0 <wiced_firmware_upgrade_init+0x50>)
  513978:	b928      	cbnz	r0, 513986 <wiced_firmware_upgrade_init+0x16>
  51397a:	4a12      	ldr	r2, [pc, #72]	; (5139c4 <wiced_firmware_upgrade_init+0x54>)
  51397c:	4601      	mov	r1, r0
  51397e:	47a8      	blx	r5
  513980:	4620      	mov	r0, r4
  513982:	b002      	add	sp, #8
  513984:	bd70      	pop	{r4, r5, r6, pc}
  513986:	4601      	mov	r1, r0
  513988:	2224      	movs	r2, #36	; 0x24
  51398a:	4b0f      	ldr	r3, [pc, #60]	; (5139c8 <wiced_firmware_upgrade_init+0x58>)
  51398c:	480f      	ldr	r0, [pc, #60]	; (5139cc <wiced_firmware_upgrade_init+0x5c>)
  51398e:	4798      	blx	r3
  513990:	4b0f      	ldr	r3, [pc, #60]	; (5139d0 <wiced_firmware_upgrade_init+0x60>)
  513992:	6a9a      	ldr	r2, [r3, #40]	; 0x28
  513994:	9201      	str	r2, [sp, #4]
  513996:	6a5a      	ldr	r2, [r3, #36]	; 0x24
  513998:	9200      	str	r2, [sp, #0]
  51399a:	2100      	movs	r1, #0
  51399c:	4a0d      	ldr	r2, [pc, #52]	; (5139d4 <wiced_firmware_upgrade_init+0x64>)
  51399e:	691b      	ldr	r3, [r3, #16]
  5139a0:	4608      	mov	r0, r1
  5139a2:	47a8      	blx	r5
  5139a4:	4b0c      	ldr	r3, [pc, #48]	; (5139d8 <wiced_firmware_upgrade_init+0x68>)
  5139a6:	601e      	str	r6, [r3, #0]
  5139a8:	4b0c      	ldr	r3, [pc, #48]	; (5139dc <wiced_firmware_upgrade_init+0x6c>)
  5139aa:	4798      	blx	r3
  5139ac:	4a0c      	ldr	r2, [pc, #48]	; (5139e0 <wiced_firmware_upgrade_init+0x70>)
  5139ae:	7813      	ldrb	r3, [r2, #0]
  5139b0:	f043 0301 	orr.w	r3, r3, #1
  5139b4:	7013      	strb	r3, [r2, #0]
  5139b6:	4b0b      	ldr	r3, [pc, #44]	; (5139e4 <wiced_firmware_upgrade_init+0x74>)
  5139b8:	22ec      	movs	r2, #236	; 0xec
  5139ba:	701a      	strb	r2, [r3, #0]
  5139bc:	2001      	movs	r0, #1
  5139be:	e7e0      	b.n	513982 <wiced_firmware_upgrade_init+0x12>
  5139c0:	000d3259 	.word	0x000d3259
  5139c4:	00525dbd 	.word	0x00525dbd
  5139c8:	00006d31 	.word	0x00006d31
  5139cc:	00210400 	.word	0x00210400
  5139d0:	0020052c 	.word	0x0020052c
  5139d4:	00525dfc 	.word	0x00525dfc
  5139d8:	00210424 	.word	0x00210424
  5139dc:	0027287d 	.word	0x0027287d
  5139e0:	002058cc 	.word	0x002058cc
  5139e4:	002058b4 	.word	0x002058b4

005139e8 <wiced_firmware_upgrade_init_nv_locations>:
  5139e8:	b513      	push	{r0, r1, r4, lr}
  5139ea:	4b0f      	ldr	r3, [pc, #60]	; (513a28 <wiced_firmware_upgrade_init_nv_locations+0x40>)
  5139ec:	490f      	ldr	r1, [pc, #60]	; (513a2c <wiced_firmware_upgrade_init_nv_locations+0x44>)
  5139ee:	691b      	ldr	r3, [r3, #16]
  5139f0:	684a      	ldr	r2, [r1, #4]
  5139f2:	4293      	cmp	r3, r2
  5139f4:	460c      	mov	r4, r1
  5139f6:	d00c      	beq.n	513a12 <wiced_firmware_upgrade_init_nv_locations+0x2a>
  5139f8:	68c9      	ldr	r1, [r1, #12]
  5139fa:	428b      	cmp	r3, r1
  5139fc:	d009      	beq.n	513a12 <wiced_firmware_upgrade_init_nv_locations+0x2a>
  5139fe:	e9cd 2100 	strd	r2, r1, [sp]
  513a02:	2100      	movs	r1, #0
  513a04:	4a0a      	ldr	r2, [pc, #40]	; (513a30 <wiced_firmware_upgrade_init_nv_locations+0x48>)
  513a06:	4c0b      	ldr	r4, [pc, #44]	; (513a34 <wiced_firmware_upgrade_init_nv_locations+0x4c>)
  513a08:	4608      	mov	r0, r1
  513a0a:	47a0      	blx	r4
  513a0c:	2000      	movs	r0, #0
  513a0e:	b002      	add	sp, #8
  513a10:	bd10      	pop	{r4, pc}
  513a12:	4b09      	ldr	r3, [pc, #36]	; (513a38 <wiced_firmware_upgrade_init_nv_locations+0x50>)
  513a14:	68a1      	ldr	r1, [r4, #8]
  513a16:	601a      	str	r2, [r3, #0]
  513a18:	2001      	movs	r0, #1
  513a1a:	2200      	movs	r2, #0
  513a1c:	60d8      	str	r0, [r3, #12]
  513a1e:	605a      	str	r2, [r3, #4]
  513a20:	6099      	str	r1, [r3, #8]
  513a22:	e9c3 2204 	strd	r2, r2, [r3, #16]
  513a26:	e7f2      	b.n	513a0e <wiced_firmware_upgrade_init_nv_locations+0x26>
  513a28:	0020052c 	.word	0x0020052c
  513a2c:	00210400 	.word	0x00210400
  513a30:	00525e18 	.word	0x00525e18
  513a34:	000d3259 	.word	0x000d3259
  513a38:	00210428 	.word	0x00210428

00513a3c <firmware_upgrade_switch_eflash_active_ds>:
  513a3c:	e92d 41f0 	stmdb	sp!, {r4, r5, r6, r7, r8, lr}
  513a40:	f44f 7000 	mov.w	r0, #512	; 0x200
  513a44:	4b21      	ldr	r3, [pc, #132]	; (513acc <firmware_upgrade_switch_eflash_active_ds+0x90>)
  513a46:	4798      	blx	r3
  513a48:	4604      	mov	r4, r0
  513a4a:	2800      	cmp	r0, #0
  513a4c:	d033      	beq.n	513ab6 <firmware_upgrade_switch_eflash_active_ds+0x7a>
  513a4e:	4d20      	ldr	r5, [pc, #128]	; (513ad0 <firmware_upgrade_switch_eflash_active_ds+0x94>)
  513a50:	4f20      	ldr	r7, [pc, #128]	; (513ad4 <firmware_upgrade_switch_eflash_active_ds+0x98>)
  513a52:	6868      	ldr	r0, [r5, #4]
  513a54:	4e20      	ldr	r6, [pc, #128]	; (513ad8 <firmware_upgrade_switch_eflash_active_ds+0x9c>)
  513a56:	f44f 7200 	mov.w	r2, #512	; 0x200
  513a5a:	4621      	mov	r1, r4
  513a5c:	f5a0 00a0 	sub.w	r0, r0, #5242880	; 0x500000
  513a60:	47b8      	blx	r7
  513a62:	2204      	movs	r2, #4
  513a64:	4b1d      	ldr	r3, [pc, #116]	; (513adc <firmware_upgrade_switch_eflash_active_ds+0xa0>)
  513a66:	f105 0110 	add.w	r1, r5, #16
  513a6a:	4620      	mov	r0, r4
  513a6c:	4798      	blx	r3
  513a6e:	6868      	ldr	r0, [r5, #4]
  513a70:	f8d5 8010 	ldr.w	r8, [r5, #16]
  513a74:	f44f 7100 	mov.w	r1, #512	; 0x200
  513a78:	f5a0 00a0 	sub.w	r0, r0, #5242880	; 0x500000
  513a7c:	47b0      	blx	r6
  513a7e:	6868      	ldr	r0, [r5, #4]
  513a80:	4b17      	ldr	r3, [pc, #92]	; (513ae0 <firmware_upgrade_switch_eflash_active_ds+0xa4>)
  513a82:	f44f 7200 	mov.w	r2, #512	; 0x200
  513a86:	4621      	mov	r1, r4
  513a88:	f5a0 00a0 	sub.w	r0, r0, #5242880	; 0x500000
  513a8c:	4798      	blx	r3
  513a8e:	4b15      	ldr	r3, [pc, #84]	; (513ae4 <firmware_upgrade_switch_eflash_active_ds+0xa8>)
  513a90:	f44f 7200 	mov.w	r2, #512	; 0x200
  513a94:	2100      	movs	r1, #0
  513a96:	4620      	mov	r0, r4
  513a98:	4798      	blx	r3
  513a9a:	6868      	ldr	r0, [r5, #4]
  513a9c:	f44f 7200 	mov.w	r2, #512	; 0x200
  513aa0:	4621      	mov	r1, r4
  513aa2:	f5a0 00a0 	sub.w	r0, r0, #5242880	; 0x500000
  513aa6:	47b8      	blx	r7
  513aa8:	6823      	ldr	r3, [r4, #0]
  513aaa:	4543      	cmp	r3, r8
  513aac:	4620      	mov	r0, r4
  513aae:	4b0e      	ldr	r3, [pc, #56]	; (513ae8 <firmware_upgrade_switch_eflash_active_ds+0xac>)
  513ab0:	d003      	beq.n	513aba <firmware_upgrade_switch_eflash_active_ds+0x7e>
  513ab2:	4798      	blx	r3
  513ab4:	2000      	movs	r0, #0
  513ab6:	e8bd 81f0 	ldmia.w	sp!, {r4, r5, r6, r7, r8, pc}
  513aba:	4798      	blx	r3
  513abc:	6828      	ldr	r0, [r5, #0]
  513abe:	f44f 7100 	mov.w	r1, #512	; 0x200
  513ac2:	f5a0 00a0 	sub.w	r0, r0, #5242880	; 0x500000
  513ac6:	47b0      	blx	r6
  513ac8:	2001      	movs	r0, #1
  513aca:	e7f4      	b.n	513ab6 <firmware_upgrade_switch_eflash_active_ds+0x7a>
  513acc:	00050d61 	.word	0x00050d61
  513ad0:	00210428 	.word	0x00210428
  513ad4:	000d3a4b 	.word	0x000d3a4b
  513ad8:	000d3a6f 	.word	0x000d3a6f
  513adc:	00006d31 	.word	0x00006d31
  513ae0:	000d3a5d 	.word	0x000d3a5d
  513ae4:	00006d41 	.word	0x00006d41
  513ae8:	00050d65 	.word	0x00050d65

00513aec <firmware_upgrade_switch_sflash_active_ds>:
  513aec:	2100      	movs	r1, #0
  513aee:	b570      	push	{r4, r5, r6, lr}
  513af0:	4a18      	ldr	r2, [pc, #96]	; (513b54 <firmware_upgrade_switch_sflash_active_ds+0x68>)
  513af2:	4e19      	ldr	r6, [pc, #100]	; (513b58 <firmware_upgrade_switch_sflash_active_ds+0x6c>)
  513af4:	4608      	mov	r0, r1
  513af6:	47b0      	blx	r6
  513af8:	f44f 7000 	mov.w	r0, #512	; 0x200
  513afc:	4b17      	ldr	r3, [pc, #92]	; (513b5c <firmware_upgrade_switch_sflash_active_ds+0x70>)
  513afe:	4798      	blx	r3
  513b00:	4604      	mov	r4, r0
  513b02:	b330      	cbz	r0, 513b52 <firmware_upgrade_switch_sflash_active_ds+0x66>
  513b04:	4d16      	ldr	r5, [pc, #88]	; (513b60 <firmware_upgrade_switch_sflash_active_ds+0x74>)
  513b06:	4a17      	ldr	r2, [pc, #92]	; (513b64 <firmware_upgrade_switch_sflash_active_ds+0x78>)
  513b08:	2100      	movs	r1, #0
  513b0a:	4608      	mov	r0, r1
  513b0c:	47b0      	blx	r6
  513b0e:	6828      	ldr	r0, [r5, #0]
  513b10:	4b15      	ldr	r3, [pc, #84]	; (513b68 <firmware_upgrade_switch_sflash_active_ds+0x7c>)
  513b12:	f44f 7200 	mov.w	r2, #512	; 0x200
  513b16:	4621      	mov	r1, r4
  513b18:	f5a0 00a0 	sub.w	r0, r0, #5242880	; 0x500000
  513b1c:	4798      	blx	r3
  513b1e:	4b13      	ldr	r3, [pc, #76]	; (513b6c <firmware_upgrade_switch_sflash_active_ds+0x80>)
  513b20:	2204      	movs	r2, #4
  513b22:	f105 0114 	add.w	r1, r5, #20
  513b26:	4620      	mov	r0, r4
  513b28:	4798      	blx	r3
  513b2a:	2100      	movs	r1, #0
  513b2c:	4a10      	ldr	r2, [pc, #64]	; (513b70 <firmware_upgrade_switch_sflash_active_ds+0x84>)
  513b2e:	4608      	mov	r0, r1
  513b30:	47b0      	blx	r6
  513b32:	6828      	ldr	r0, [r5, #0]
  513b34:	4b0f      	ldr	r3, [pc, #60]	; (513b74 <firmware_upgrade_switch_sflash_active_ds+0x88>)
  513b36:	f44f 7100 	mov.w	r1, #512	; 0x200
  513b3a:	f5a0 00a0 	sub.w	r0, r0, #5242880	; 0x500000
  513b3e:	4798      	blx	r3
  513b40:	6828      	ldr	r0, [r5, #0]
  513b42:	4b0d      	ldr	r3, [pc, #52]	; (513b78 <firmware_upgrade_switch_sflash_active_ds+0x8c>)
  513b44:	f44f 7200 	mov.w	r2, #512	; 0x200
  513b48:	4621      	mov	r1, r4
  513b4a:	f5a0 00a0 	sub.w	r0, r0, #5242880	; 0x500000
  513b4e:	4798      	blx	r3
  513b50:	2001      	movs	r0, #1
  513b52:	bd70      	pop	{r4, r5, r6, pc}
  513b54:	00525e54 	.word	0x00525e54
  513b58:	000d3259 	.word	0x000d3259
  513b5c:	00050d61 	.word	0x00050d61
  513b60:	00210428 	.word	0x00210428
  513b64:	00525e7e 	.word	0x00525e7e
  513b68:	000d3a4b 	.word	0x000d3a4b
  513b6c:	00006d31 	.word	0x00006d31
  513b70:	00525e9c 	.word	0x00525e9c
  513b74:	000d3a6f 	.word	0x000d3a6f
  513b78:	000d3a5d 	.word	0x000d3a5d

00513b7c <firmware_upgrade_switch_active_ds>:
  513b7c:	4b05      	ldr	r3, [pc, #20]	; (513b94 <firmware_upgrade_switch_active_ds+0x18>)
  513b7e:	68db      	ldr	r3, [r3, #12]
  513b80:	b90b      	cbnz	r3, 513b86 <firmware_upgrade_switch_active_ds+0xa>
  513b82:	4b05      	ldr	r3, [pc, #20]	; (513b98 <firmware_upgrade_switch_active_ds+0x1c>)
  513b84:	4718      	bx	r3
  513b86:	2b01      	cmp	r3, #1
  513b88:	d101      	bne.n	513b8e <firmware_upgrade_switch_active_ds+0x12>
  513b8a:	4b04      	ldr	r3, [pc, #16]	; (513b9c <firmware_upgrade_switch_active_ds+0x20>)
  513b8c:	e7fa      	b.n	513b84 <firmware_upgrade_switch_active_ds+0x8>
  513b8e:	2000      	movs	r0, #0
  513b90:	4770      	bx	lr
  513b92:	bf00      	nop
  513b94:	00210428 	.word	0x00210428
  513b98:	00513a3d 	.word	0x00513a3d
  513b9c:	00513aed 	.word	0x00513aed

00513ba0 <wiced_firmware_upgrade_finish>:
  513ba0:	b570      	push	{r4, r5, r6, lr}
  513ba2:	4b0c      	ldr	r3, [pc, #48]	; (513bd4 <wiced_firmware_upgrade_finish+0x34>)
  513ba4:	4c0c      	ldr	r4, [pc, #48]	; (513bd8 <wiced_firmware_upgrade_finish+0x38>)
  513ba6:	4798      	blx	r3
  513ba8:	4605      	mov	r5, r0
  513baa:	b930      	cbnz	r0, 513bba <wiced_firmware_upgrade_finish+0x1a>
  513bac:	4a0b      	ldr	r2, [pc, #44]	; (513bdc <wiced_firmware_upgrade_finish+0x3c>)
  513bae:	4601      	mov	r1, r0
  513bb0:	47a0      	blx	r4
  513bb2:	4a0b      	ldr	r2, [pc, #44]	; (513be0 <wiced_firmware_upgrade_finish+0x40>)
  513bb4:	4629      	mov	r1, r5
  513bb6:	4628      	mov	r0, r5
  513bb8:	47a0      	blx	r4
  513bba:	2100      	movs	r1, #0
  513bbc:	4a09      	ldr	r2, [pc, #36]	; (513be4 <wiced_firmware_upgrade_finish+0x44>)
  513bbe:	4608      	mov	r0, r1
  513bc0:	47a0      	blx	r4
  513bc2:	2100      	movs	r1, #0
  513bc4:	4a08      	ldr	r2, [pc, #32]	; (513be8 <wiced_firmware_upgrade_finish+0x48>)
  513bc6:	4608      	mov	r0, r1
  513bc8:	47a0      	blx	r4
  513bca:	4b08      	ldr	r3, [pc, #32]	; (513bec <wiced_firmware_upgrade_finish+0x4c>)
  513bcc:	e8bd 4070 	ldmia.w	sp!, {r4, r5, r6, lr}
  513bd0:	4718      	bx	r3
  513bd2:	bf00      	nop
  513bd4:	00513b7d 	.word	0x00513b7d
  513bd8:	000d3259 	.word	0x000d3259
  513bdc:	00525ec1 	.word	0x00525ec1
  513be0:	00525eda 	.word	0x00525eda
  513be4:	00525ef9 	.word	0x00525ef9
  513be8:	00525f0f 	.word	0x00525f0f
  513bec:	000d38ff 	.word	0x000d38ff

00513bf0 <fw_upgrade_erase_sector>:
  513bf0:	b573      	push	{r0, r1, r4, r5, r6, lr}
  513bf2:	4b0c      	ldr	r3, [pc, #48]	; (513c24 <fw_upgrade_erase_sector+0x34>)
  513bf4:	4c0c      	ldr	r4, [pc, #48]	; (513c28 <fw_upgrade_erase_sector+0x38>)
  513bf6:	4605      	mov	r5, r0
  513bf8:	4798      	blx	r3
  513bfa:	f44f 5680 	mov.w	r6, #4096	; 0x1000
  513bfe:	2100      	movs	r1, #0
  513c00:	9001      	str	r0, [sp, #4]
  513c02:	462b      	mov	r3, r5
  513c04:	4a09      	ldr	r2, [pc, #36]	; (513c2c <fw_upgrade_erase_sector+0x3c>)
  513c06:	9600      	str	r6, [sp, #0]
  513c08:	4608      	mov	r0, r1
  513c0a:	47a0      	blx	r4
  513c0c:	4631      	mov	r1, r6
  513c0e:	4628      	mov	r0, r5
  513c10:	4b07      	ldr	r3, [pc, #28]	; (513c30 <fw_upgrade_erase_sector+0x40>)
  513c12:	4798      	blx	r3
  513c14:	2100      	movs	r1, #0
  513c16:	4a07      	ldr	r2, [pc, #28]	; (513c34 <fw_upgrade_erase_sector+0x44>)
  513c18:	4608      	mov	r0, r1
  513c1a:	4623      	mov	r3, r4
  513c1c:	b002      	add	sp, #8
  513c1e:	e8bd 4070 	ldmia.w	sp!, {r4, r5, r6, lr}
  513c22:	4718      	bx	r3
  513c24:	0007f70d 	.word	0x0007f70d
  513c28:	000d3259 	.word	0x000d3259
  513c2c:	00525f21 	.word	0x00525f21
  513c30:	0001832b 	.word	0x0001832b
  513c34:	00525f4c 	.word	0x00525f4c

00513c38 <fw_upgrade_read_mem>:
  513c38:	b5f7      	push	{r0, r1, r2, r4, r5, r6, r7, lr}
  513c3a:	460f      	mov	r7, r1
  513c3c:	2100      	movs	r1, #0
  513c3e:	4614      	mov	r4, r2
  513c40:	4603      	mov	r3, r0
  513c42:	4606      	mov	r6, r0
  513c44:	9200      	str	r2, [sp, #0]
  513c46:	4608      	mov	r0, r1
  513c48:	4a08      	ldr	r2, [pc, #32]	; (513c6c <fw_upgrade_read_mem+0x34>)
  513c4a:	4d09      	ldr	r5, [pc, #36]	; (513c70 <fw_upgrade_read_mem+0x38>)
  513c4c:	47a8      	blx	r5
  513c4e:	463a      	mov	r2, r7
  513c50:	4621      	mov	r1, r4
  513c52:	4630      	mov	r0, r6
  513c54:	4b07      	ldr	r3, [pc, #28]	; (513c74 <fw_upgrade_read_mem+0x3c>)
  513c56:	4798      	blx	r3
  513c58:	42a0      	cmp	r0, r4
  513c5a:	d004      	beq.n	513c66 <fw_upgrade_read_mem+0x2e>
  513c5c:	2100      	movs	r1, #0
  513c5e:	4a06      	ldr	r2, [pc, #24]	; (513c78 <fw_upgrade_read_mem+0x40>)
  513c60:	4608      	mov	r0, r1
  513c62:	47a8      	blx	r5
  513c64:	2400      	movs	r4, #0
  513c66:	4620      	mov	r0, r4
  513c68:	b003      	add	sp, #12
  513c6a:	bdf0      	pop	{r4, r5, r6, r7, pc}
  513c6c:	00525f59 	.word	0x00525f59
  513c70:	000d3259 	.word	0x000d3259
  513c74:	000d3815 	.word	0x000d3815
  513c78:	00525f75 	.word	0x00525f75

00513c7c <wiced_firmware_upgrade_retrieve_from_nv>:
  513c7c:	e92d 41f0 	stmdb	sp!, {r4, r5, r6, r7, r8, lr}
  513c80:	4d15      	ldr	r5, [pc, #84]	; (513cd8 <wiced_firmware_upgrade_retrieve_from_nv+0x5c>)
  513c82:	68ee      	ldr	r6, [r5, #12]
  513c84:	4688      	mov	r8, r1
  513c86:	4617      	mov	r7, r2
  513c88:	b9ee      	cbnz	r6, 513cc6 <wiced_firmware_upgrade_retrieve_from_nv+0x4a>
  513c8a:	686c      	ldr	r4, [r5, #4]
  513c8c:	4b13      	ldr	r3, [pc, #76]	; (513cdc <wiced_firmware_upgrade_retrieve_from_nv+0x60>)
  513c8e:	f5a4 04a0 	sub.w	r4, r4, #5242880	; 0x500000
  513c92:	4404      	add	r4, r0
  513c94:	4620      	mov	r0, r4
  513c96:	4798      	blx	r3
  513c98:	b968      	cbnz	r0, 513cb6 <wiced_firmware_upgrade_retrieve_from_nv+0x3a>
  513c9a:	686b      	ldr	r3, [r5, #4]
  513c9c:	f5a3 03a0 	sub.w	r3, r3, #5242880	; 0x500000
  513ca0:	42a3      	cmp	r3, r4
  513ca2:	d105      	bne.n	513cb0 <wiced_firmware_upgrade_retrieve_from_nv+0x34>
  513ca4:	2204      	movs	r2, #4
  513ca6:	f105 0110 	add.w	r1, r5, #16
  513caa:	4640      	mov	r0, r8
  513cac:	4b0c      	ldr	r3, [pc, #48]	; (513ce0 <wiced_firmware_upgrade_retrieve_from_nv+0x64>)
  513cae:	4798      	blx	r3
  513cb0:	4638      	mov	r0, r7
  513cb2:	e8bd 81f0 	ldmia.w	sp!, {r4, r5, r6, r7, r8, pc}
  513cb6:	4623      	mov	r3, r4
  513cb8:	4a0a      	ldr	r2, [pc, #40]	; (513ce4 <wiced_firmware_upgrade_retrieve_from_nv+0x68>)
  513cba:	4c0b      	ldr	r4, [pc, #44]	; (513ce8 <wiced_firmware_upgrade_retrieve_from_nv+0x6c>)
  513cbc:	4631      	mov	r1, r6
  513cbe:	4630      	mov	r0, r6
  513cc0:	47a0      	blx	r4
  513cc2:	2700      	movs	r7, #0
  513cc4:	e7f4      	b.n	513cb0 <wiced_firmware_upgrade_retrieve_from_nv+0x34>
  513cc6:	2e01      	cmp	r6, #1
  513cc8:	d1fb      	bne.n	513cc2 <wiced_firmware_upgrade_retrieve_from_nv+0x46>
  513cca:	686b      	ldr	r3, [r5, #4]
  513ccc:	e8bd 41f0 	ldmia.w	sp!, {r4, r5, r6, r7, r8, lr}
  513cd0:	4418      	add	r0, r3
  513cd2:	4b06      	ldr	r3, [pc, #24]	; (513cec <wiced_firmware_upgrade_retrieve_from_nv+0x70>)
  513cd4:	4718      	bx	r3
  513cd6:	bf00      	nop
  513cd8:	00210428 	.word	0x00210428
  513cdc:	000d3a4b 	.word	0x000d3a4b
  513ce0:	00006d31 	.word	0x00006d31
  513ce4:	00525f89 	.word	0x00525f89
  513ce8:	000d3259 	.word	0x000d3259
  513cec:	00513c39 	.word	0x00513c39

00513cf0 <fw_upgrade_write_mem>:
  513cf0:	b5f7      	push	{r0, r1, r2, r4, r5, r6, r7, lr}
  513cf2:	460f      	mov	r7, r1
  513cf4:	2100      	movs	r1, #0
  513cf6:	4605      	mov	r5, r0
  513cf8:	4616      	mov	r6, r2
  513cfa:	9200      	str	r2, [sp, #0]
  513cfc:	4603      	mov	r3, r0
  513cfe:	4c08      	ldr	r4, [pc, #32]	; (513d20 <fw_upgrade_write_mem+0x30>)
  513d00:	4a08      	ldr	r2, [pc, #32]	; (513d24 <fw_upgrade_write_mem+0x34>)
  513d02:	4608      	mov	r0, r1
  513d04:	47a0      	blx	r4
  513d06:	4632      	mov	r2, r6
  513d08:	4639      	mov	r1, r7
  513d0a:	4b07      	ldr	r3, [pc, #28]	; (513d28 <fw_upgrade_write_mem+0x38>)
  513d0c:	4628      	mov	r0, r5
  513d0e:	4798      	blx	r3
  513d10:	2100      	movs	r1, #0
  513d12:	4605      	mov	r5, r0
  513d14:	4a05      	ldr	r2, [pc, #20]	; (513d2c <fw_upgrade_write_mem+0x3c>)
  513d16:	4608      	mov	r0, r1
  513d18:	47a0      	blx	r4
  513d1a:	4628      	mov	r0, r5
  513d1c:	b003      	add	sp, #12
  513d1e:	bdf0      	pop	{r4, r5, r6, r7, pc}
  513d20:	000d3259 	.word	0x000d3259
  513d24:	00525fa3 	.word	0x00525fa3
  513d28:	00018175 	.word	0x00018175
  513d2c:	00525f4c 	.word	0x00525f4c

00513d30 <wiced_firmware_upgrade_store_to_nv>:
  513d30:	e92d 41f3 	stmdb	sp!, {r0, r1, r4, r5, r6, r7, r8, lr}
  513d34:	4c26      	ldr	r4, [pc, #152]	; (513dd0 <wiced_firmware_upgrade_store_to_nv+0xa0>)
  513d36:	68e6      	ldr	r6, [r4, #12]
  513d38:	4605      	mov	r5, r0
  513d3a:	460f      	mov	r7, r1
  513d3c:	4690      	mov	r8, r2
  513d3e:	bb8e      	cbnz	r6, 513da4 <wiced_firmware_upgrade_store_to_nv+0x74>
  513d40:	f3c0 0308 	ubfx	r3, r0, #0, #9
  513d44:	b99b      	cbnz	r3, 513d6e <wiced_firmware_upgrade_store_to_nv+0x3e>
  513d46:	6860      	ldr	r0, [r4, #4]
  513d48:	4b22      	ldr	r3, [pc, #136]	; (513dd4 <wiced_firmware_upgrade_store_to_nv+0xa4>)
  513d4a:	f5a0 00a0 	sub.w	r0, r0, #5242880	; 0x500000
  513d4e:	f44f 7100 	mov.w	r1, #512	; 0x200
  513d52:	4428      	add	r0, r5
  513d54:	4798      	blx	r3
  513d56:	b955      	cbnz	r5, 513d6e <wiced_firmware_upgrade_store_to_nv+0x3e>
  513d58:	4b1f      	ldr	r3, [pc, #124]	; (513dd8 <wiced_firmware_upgrade_store_to_nv+0xa8>)
  513d5a:	2204      	movs	r2, #4
  513d5c:	4639      	mov	r1, r7
  513d5e:	f104 0010 	add.w	r0, r4, #16
  513d62:	4798      	blx	r3
  513d64:	23ff      	movs	r3, #255	; 0xff
  513d66:	703b      	strb	r3, [r7, #0]
  513d68:	707b      	strb	r3, [r7, #1]
  513d6a:	70bb      	strb	r3, [r7, #2]
  513d6c:	70fb      	strb	r3, [r7, #3]
  513d6e:	6863      	ldr	r3, [r4, #4]
  513d70:	f5a3 03a0 	sub.w	r3, r3, #5242880	; 0x500000
  513d74:	441d      	add	r5, r3
  513d76:	4642      	mov	r2, r8
  513d78:	4639      	mov	r1, r7
  513d7a:	4628      	mov	r0, r5
  513d7c:	4b17      	ldr	r3, [pc, #92]	; (513ddc <wiced_firmware_upgrade_store_to_nv+0xac>)
  513d7e:	4798      	blx	r3
  513d80:	b938      	cbnz	r0, 513d92 <wiced_firmware_upgrade_store_to_nv+0x62>
  513d82:	6963      	ldr	r3, [r4, #20]
  513d84:	4443      	add	r3, r8
  513d86:	6163      	str	r3, [r4, #20]
  513d88:	4646      	mov	r6, r8
  513d8a:	4630      	mov	r0, r6
  513d8c:	b002      	add	sp, #8
  513d8e:	e8bd 81f0 	ldmia.w	sp!, {r4, r5, r6, r7, r8, pc}
  513d92:	2100      	movs	r1, #0
  513d94:	f8cd 8000 	str.w	r8, [sp]
  513d98:	462b      	mov	r3, r5
  513d9a:	4a11      	ldr	r2, [pc, #68]	; (513de0 <wiced_firmware_upgrade_store_to_nv+0xb0>)
  513d9c:	4c11      	ldr	r4, [pc, #68]	; (513de4 <wiced_firmware_upgrade_store_to_nv+0xb4>)
  513d9e:	4608      	mov	r0, r1
  513da0:	47a0      	blx	r4
  513da2:	e7f2      	b.n	513d8a <wiced_firmware_upgrade_store_to_nv+0x5a>
  513da4:	2e01      	cmp	r6, #1
  513da6:	d111      	bne.n	513dcc <wiced_firmware_upgrade_store_to_nv+0x9c>
  513da8:	6863      	ldr	r3, [r4, #4]
  513daa:	441d      	add	r5, r3
  513dac:	f3c5 030b 	ubfx	r3, r5, #0, #12
  513db0:	b913      	cbnz	r3, 513db8 <wiced_firmware_upgrade_store_to_nv+0x88>
  513db2:	4628      	mov	r0, r5
  513db4:	4b0c      	ldr	r3, [pc, #48]	; (513de8 <wiced_firmware_upgrade_store_to_nv+0xb8>)
  513db6:	4798      	blx	r3
  513db8:	4b0c      	ldr	r3, [pc, #48]	; (513dec <wiced_firmware_upgrade_store_to_nv+0xbc>)
  513dba:	4642      	mov	r2, r8
  513dbc:	4639      	mov	r1, r7
  513dbe:	4628      	mov	r0, r5
  513dc0:	4798      	blx	r3
  513dc2:	6963      	ldr	r3, [r4, #20]
  513dc4:	4403      	add	r3, r0
  513dc6:	4606      	mov	r6, r0
  513dc8:	6163      	str	r3, [r4, #20]
  513dca:	e7de      	b.n	513d8a <wiced_firmware_upgrade_store_to_nv+0x5a>
  513dcc:	2600      	movs	r6, #0
  513dce:	e7dc      	b.n	513d8a <wiced_firmware_upgrade_store_to_nv+0x5a>
  513dd0:	00210428 	.word	0x00210428
  513dd4:	000d3a6f 	.word	0x000d3a6f
  513dd8:	00006d31 	.word	0x00006d31
  513ddc:	000d3a5d 	.word	0x000d3a5d
  513de0:	00525fbe 	.word	0x00525fbe
  513de4:	000d3259 	.word	0x000d3259
  513de8:	00513bf1 	.word	0x00513bf1
  513dec:	00513cf1 	.word	0x00513cf1

00513df0 <ota_fw_upgrade_reset_timeout>:
  513df0:	b570      	push	{r4, r5, r6, lr}
  513df2:	4d0d      	ldr	r5, [pc, #52]	; (513e28 <ota_fw_upgrade_reset_timeout+0x38>)
  513df4:	8828      	ldrh	r0, [r5, #0]
  513df6:	b190      	cbz	r0, 513e1e <ota_fw_upgrade_reset_timeout+0x2e>
  513df8:	4b0c      	ldr	r3, [pc, #48]	; (513e2c <ota_fw_upgrade_reset_timeout+0x3c>)
  513dfa:	4798      	blx	r3
  513dfc:	2400      	movs	r4, #0
  513dfe:	4b0c      	ldr	r3, [pc, #48]	; (513e30 <ota_fw_upgrade_reset_timeout+0x40>)
  513e00:	480c      	ldr	r0, [pc, #48]	; (513e34 <ota_fw_upgrade_reset_timeout+0x44>)
  513e02:	802c      	strh	r4, [r5, #0]
  513e04:	4798      	blx	r3
  513e06:	2301      	movs	r3, #1
  513e08:	4622      	mov	r2, r4
  513e0a:	490b      	ldr	r1, [pc, #44]	; (513e38 <ota_fw_upgrade_reset_timeout+0x48>)
  513e0c:	4c0b      	ldr	r4, [pc, #44]	; (513e3c <ota_fw_upgrade_reset_timeout+0x4c>)
  513e0e:	4809      	ldr	r0, [pc, #36]	; (513e34 <ota_fw_upgrade_reset_timeout+0x44>)
  513e10:	47a0      	blx	r4
  513e12:	2101      	movs	r1, #1
  513e14:	4807      	ldr	r0, [pc, #28]	; (513e34 <ota_fw_upgrade_reset_timeout+0x44>)
  513e16:	4b0a      	ldr	r3, [pc, #40]	; (513e40 <ota_fw_upgrade_reset_timeout+0x50>)
  513e18:	e8bd 4070 	ldmia.w	sp!, {r4, r5, r6, lr}
  513e1c:	4718      	bx	r3
  513e1e:	4b09      	ldr	r3, [pc, #36]	; (513e44 <ota_fw_upgrade_reset_timeout+0x54>)
  513e20:	e8bd 4070 	ldmia.w	sp!, {r4, r5, r6, lr}
  513e24:	4718      	bx	r3
  513e26:	bf00      	nop
  513e28:	00210050 	.word	0x00210050
  513e2c:	000d2a1b 	.word	0x000d2a1b
  513e30:	000064d9 	.word	0x000064d9
  513e34:	00210468 	.word	0x00210468
  513e38:	00513df1 	.word	0x00513df1
  513e3c:	00006451 	.word	0x00006451
  513e40:	0000647b 	.word	0x0000647b
  513e44:	00513ba1 	.word	0x00513ba1

00513e48 <ota_fw_upgrade_send_notification.constprop.2>:
  513e48:	4a16      	ldr	r2, [pc, #88]	; (513ea4 <ota_fw_upgrade_send_notification.constprop.2+0x5c>)
  513e4a:	b573      	push	{r0, r1, r4, r5, r6, lr}
  513e4c:	460b      	mov	r3, r1
  513e4e:	8851      	ldrh	r1, [r2, #2]
  513e50:	f011 0601 	ands.w	r6, r1, #1
  513e54:	d013      	beq.n	513e7e <ota_fw_upgrade_send_notification.constprop.2+0x36>
  513e56:	6854      	ldr	r4, [r2, #4]
  513e58:	b144      	cbz	r4, 513e6c <ota_fw_upgrade_send_notification.constprop.2+0x24>
  513e5a:	9300      	str	r3, [sp, #0]
  513e5c:	2301      	movs	r3, #1
  513e5e:	4601      	mov	r1, r0
  513e60:	f64f 7202 	movw	r2, #65282	; 0xff02
  513e64:	4618      	mov	r0, r3
  513e66:	47a0      	blx	r4
  513e68:	b002      	add	sp, #8
  513e6a:	bd70      	pop	{r4, r5, r6, pc}
  513e6c:	4c0e      	ldr	r4, [pc, #56]	; (513ea8 <ota_fw_upgrade_send_notification.constprop.2+0x60>)
  513e6e:	2201      	movs	r2, #1
  513e70:	f64f 7102 	movw	r1, #65282	; 0xff02
  513e74:	46a4      	mov	ip, r4
  513e76:	b002      	add	sp, #8
  513e78:	e8bd 4070 	ldmia.w	sp!, {r4, r5, r6, lr}
  513e7c:	4760      	bx	ip
  513e7e:	0789      	lsls	r1, r1, #30
  513e80:	d50d      	bpl.n	513e9e <ota_fw_upgrade_send_notification.constprop.2+0x56>
  513e82:	6854      	ldr	r4, [r2, #4]
  513e84:	b134      	cbz	r4, 513e94 <ota_fw_upgrade_send_notification.constprop.2+0x4c>
  513e86:	9300      	str	r3, [sp, #0]
  513e88:	4601      	mov	r1, r0
  513e8a:	2301      	movs	r3, #1
  513e8c:	f64f 7202 	movw	r2, #65282	; 0xff02
  513e90:	4630      	mov	r0, r6
  513e92:	e7e8      	b.n	513e66 <ota_fw_upgrade_send_notification.constprop.2+0x1e>
  513e94:	2201      	movs	r2, #1
  513e96:	f64f 7102 	movw	r1, #65282	; 0xff02
  513e9a:	4c04      	ldr	r4, [pc, #16]	; (513eac <ota_fw_upgrade_send_notification.constprop.2+0x64>)
  513e9c:	e7ea      	b.n	513e74 <ota_fw_upgrade_send_notification.constprop.2+0x2c>
  513e9e:	2085      	movs	r0, #133	; 0x85
  513ea0:	e7e2      	b.n	513e68 <ota_fw_upgrade_send_notification.constprop.2+0x20>
  513ea2:	bf00      	nop
  513ea4:	00210050 	.word	0x00210050
  513ea8:	000d2993 	.word	0x000d2993
  513eac:	000d2981 	.word	0x000d2981

00513eb0 <ota_fw_upgrade_init_data>:
  513eb0:	4b06      	ldr	r3, [pc, #24]	; (513ecc <ota_fw_upgrade_init_data+0x1c>)
  513eb2:	2201      	movs	r2, #1
  513eb4:	60da      	str	r2, [r3, #12]
  513eb6:	e9c3 1001 	strd	r1, r0, [r3, #4]
  513eba:	4b05      	ldr	r3, [pc, #20]	; (513ed0 <ota_fw_upgrade_init_data+0x20>)
  513ebc:	2200      	movs	r2, #0
  513ebe:	601a      	str	r2, [r3, #0]
  513ec0:	f883 2024 	strb.w	r2, [r3, #36]	; 0x24
  513ec4:	f8c3 226c 	str.w	r2, [r3, #620]	; 0x26c
  513ec8:	4770      	bx	lr
  513eca:	bf00      	nop
  513ecc:	00210050 	.word	0x00210050
  513ed0:	00210440 	.word	0x00210440

00513ed4 <wiced_ota_fw_upgrade_connection_status_event>:
  513ed4:	4b05      	ldr	r3, [pc, #20]	; (513eec <wiced_ota_fw_upgrade_connection_status_event+0x18>)
  513ed6:	2200      	movs	r2, #0
  513ed8:	601a      	str	r2, [r3, #0]
  513eda:	6882      	ldr	r2, [r0, #8]
  513edc:	b122      	cbz	r2, 513ee8 <wiced_ota_fw_upgrade_connection_status_event+0x14>
  513ede:	6801      	ldr	r1, [r0, #0]
  513ee0:	2206      	movs	r2, #6
  513ee2:	1d18      	adds	r0, r3, #4
  513ee4:	4b02      	ldr	r3, [pc, #8]	; (513ef0 <wiced_ota_fw_upgrade_connection_status_event+0x1c>)
  513ee6:	4718      	bx	r3
  513ee8:	4770      	bx	lr
  513eea:	bf00      	nop
  513eec:	00210440 	.word	0x00210440
  513ef0:	00006d31 	.word	0x00006d31

00513ef4 <wiced_ota_fw_upgrade_read_handler>:
  513ef4:	880a      	ldrh	r2, [r1, #0]
  513ef6:	f64f 7303 	movw	r3, #65283	; 0xff03
  513efa:	429a      	cmp	r2, r3
  513efc:	b510      	push	{r4, lr}
  513efe:	d119      	bne.n	513f34 <wiced_ota_fw_upgrade_read_handler+0x40>
  513f00:	884a      	ldrh	r2, [r1, #2]
  513f02:	2a01      	cmp	r2, #1
  513f04:	d818      	bhi.n	513f38 <wiced_ota_fw_upgrade_read_handler+0x44>
  513f06:	688b      	ldr	r3, [r1, #8]
  513f08:	881b      	ldrh	r3, [r3, #0]
  513f0a:	2b01      	cmp	r3, #1
  513f0c:	d916      	bls.n	513f3c <wiced_ota_fw_upgrade_read_handler+0x48>
  513f0e:	480c      	ldr	r0, [pc, #48]	; (513f40 <wiced_ota_fw_upgrade_read_handler+0x4c>)
  513f10:	68cc      	ldr	r4, [r1, #12]
  513f12:	8843      	ldrh	r3, [r0, #2]
  513f14:	2a01      	cmp	r2, #1
  513f16:	d105      	bne.n	513f24 <wiced_ota_fw_upgrade_read_handler+0x30>
  513f18:	0a1b      	lsrs	r3, r3, #8
  513f1a:	7023      	strb	r3, [r4, #0]
  513f1c:	688b      	ldr	r3, [r1, #8]
  513f1e:	801a      	strh	r2, [r3, #0]
  513f20:	2000      	movs	r0, #0
  513f22:	bd10      	pop	{r4, pc}
  513f24:	7023      	strb	r3, [r4, #0]
  513f26:	8843      	ldrh	r3, [r0, #2]
  513f28:	68ca      	ldr	r2, [r1, #12]
  513f2a:	0a1b      	lsrs	r3, r3, #8
  513f2c:	7053      	strb	r3, [r2, #1]
  513f2e:	688b      	ldr	r3, [r1, #8]
  513f30:	2202      	movs	r2, #2
  513f32:	e7f4      	b.n	513f1e <wiced_ota_fw_upgrade_read_handler+0x2a>
  513f34:	2001      	movs	r0, #1
  513f36:	e7f4      	b.n	513f22 <wiced_ota_fw_upgrade_read_handler+0x2e>
  513f38:	2007      	movs	r0, #7
  513f3a:	e7f2      	b.n	513f22 <wiced_ota_fw_upgrade_read_handler+0x2e>
  513f3c:	200d      	movs	r0, #13
  513f3e:	e7f0      	b.n	513f22 <wiced_ota_fw_upgrade_read_handler+0x2e>
  513f40:	00210050 	.word	0x00210050

00513f44 <wiced_ota_fw_upgrade_indication_cfm_handler>:
  513f44:	b5f7      	push	{r0, r1, r2, r4, r5, r6, r7, lr}
  513f46:	4d17      	ldr	r5, [pc, #92]	; (513fa4 <wiced_ota_fw_upgrade_indication_cfm_handler+0x60>)
  513f48:	4a17      	ldr	r2, [pc, #92]	; (513fa8 <wiced_ota_fw_upgrade_indication_cfm_handler+0x64>)
  513f4a:	682b      	ldr	r3, [r5, #0]
  513f4c:	4f17      	ldr	r7, [pc, #92]	; (513fac <wiced_ota_fw_upgrade_indication_cfm_handler+0x68>)
  513f4e:	460e      	mov	r6, r1
  513f50:	2100      	movs	r1, #0
  513f52:	4604      	mov	r4, r0
  513f54:	4608      	mov	r0, r1
  513f56:	47b8      	blx	r7
  513f58:	2100      	movs	r1, #0
  513f5a:	4623      	mov	r3, r4
  513f5c:	9600      	str	r6, [sp, #0]
  513f5e:	4a14      	ldr	r2, [pc, #80]	; (513fb0 <wiced_ota_fw_upgrade_indication_cfm_handler+0x6c>)
  513f60:	4608      	mov	r0, r1
  513f62:	47b8      	blx	r7
  513f64:	f64f 7302 	movw	r3, #65282	; 0xff02
  513f68:	429e      	cmp	r6, r3
  513f6a:	d118      	bne.n	513f9e <wiced_ota_fw_upgrade_indication_cfm_handler+0x5a>
  513f6c:	6828      	ldr	r0, [r5, #0]
  513f6e:	2803      	cmp	r0, #3
  513f70:	d113      	bne.n	513f9a <wiced_ota_fw_upgrade_indication_cfm_handler+0x56>
  513f72:	4b10      	ldr	r3, [pc, #64]	; (513fb4 <wiced_ota_fw_upgrade_indication_cfm_handler+0x70>)
  513f74:	689b      	ldr	r3, [r3, #8]
  513f76:	b103      	cbz	r3, 513f7a <wiced_ota_fw_upgrade_indication_cfm_handler+0x36>
  513f78:	4798      	blx	r3
  513f7a:	4620      	mov	r0, r4
  513f7c:	4b0e      	ldr	r3, [pc, #56]	; (513fb8 <wiced_ota_fw_upgrade_indication_cfm_handler+0x74>)
  513f7e:	4c0f      	ldr	r4, [pc, #60]	; (513fbc <wiced_ota_fw_upgrade_indication_cfm_handler+0x78>)
  513f80:	4798      	blx	r3
  513f82:	4b0f      	ldr	r3, [pc, #60]	; (513fc0 <wiced_ota_fw_upgrade_indication_cfm_handler+0x7c>)
  513f84:	480f      	ldr	r0, [pc, #60]	; (513fc4 <wiced_ota_fw_upgrade_indication_cfm_handler+0x80>)
  513f86:	4798      	blx	r3
  513f88:	2301      	movs	r3, #1
  513f8a:	490f      	ldr	r1, [pc, #60]	; (513fc8 <wiced_ota_fw_upgrade_indication_cfm_handler+0x84>)
  513f8c:	480d      	ldr	r0, [pc, #52]	; (513fc4 <wiced_ota_fw_upgrade_indication_cfm_handler+0x80>)
  513f8e:	2200      	movs	r2, #0
  513f90:	47a0      	blx	r4
  513f92:	2101      	movs	r1, #1
  513f94:	480b      	ldr	r0, [pc, #44]	; (513fc4 <wiced_ota_fw_upgrade_indication_cfm_handler+0x80>)
  513f96:	4b0d      	ldr	r3, [pc, #52]	; (513fcc <wiced_ota_fw_upgrade_indication_cfm_handler+0x88>)
  513f98:	4798      	blx	r3
  513f9a:	2000      	movs	r0, #0
  513f9c:	e000      	b.n	513fa0 <wiced_ota_fw_upgrade_indication_cfm_handler+0x5c>
  513f9e:	2001      	movs	r0, #1
  513fa0:	b003      	add	sp, #12
  513fa2:	bdf0      	pop	{r4, r5, r6, r7, pc}
  513fa4:	00210440 	.word	0x00210440
  513fa8:	0052601c 	.word	0x0052601c
  513fac:	000d3259 	.word	0x000d3259
  513fb0:	00526053 	.word	0x00526053
  513fb4:	00210050 	.word	0x00210050
  513fb8:	000d2a1b 	.word	0x000d2a1b
  513fbc:	00006451 	.word	0x00006451
  513fc0:	000064d9 	.word	0x000064d9
  513fc4:	00210468 	.word	0x00210468
  513fc8:	00513df1 	.word	0x00513df1
  513fcc:	0000647b 	.word	0x0000647b

00513fd0 <dump_hex>:
  513fd0:	e92d 41f0 	stmdb	sp!, {r4, r5, r6, r7, r8, lr}
  513fd4:	4d1b      	ldr	r5, [pc, #108]	; (514044 <dump_hex+0x74>)
  513fd6:	b09a      	sub	sp, #104	; 0x68
  513fd8:	4680      	mov	r8, r0
  513fda:	460c      	mov	r4, r1
  513fdc:	2620      	movs	r6, #32
  513fde:	b944      	cbnz	r4, 513ff2 <dump_hex+0x22>
  513fe0:	4621      	mov	r1, r4
  513fe2:	ab01      	add	r3, sp, #4
  513fe4:	4a18      	ldr	r2, [pc, #96]	; (514048 <dump_hex+0x78>)
  513fe6:	4620      	mov	r0, r4
  513fe8:	4c18      	ldr	r4, [pc, #96]	; (51404c <dump_hex+0x7c>)
  513fea:	47a0      	blx	r4
  513fec:	b01a      	add	sp, #104	; 0x68
  513fee:	e8bd 81f0 	ldmia.w	sp!, {r4, r5, r6, r7, r8, pc}
  513ff2:	2264      	movs	r2, #100	; 0x64
  513ff4:	2100      	movs	r1, #0
  513ff6:	a801      	add	r0, sp, #4
  513ff8:	47a8      	blx	r5
  513ffa:	4647      	mov	r7, r8
  513ffc:	a801      	add	r0, sp, #4
  513ffe:	2200      	movs	r2, #0
  514000:	4294      	cmp	r4, r2
  514002:	46b8      	mov	r8, r7
  514004:	d001      	beq.n	51400a <dump_hex+0x3a>
  514006:	2a20      	cmp	r2, #32
  514008:	d108      	bne.n	51401c <dump_hex+0x4c>
  51400a:	1aa4      	subs	r4, r4, r2
  51400c:	d0e7      	beq.n	513fde <dump_hex+0xe>
  51400e:	2100      	movs	r1, #0
  514010:	ab01      	add	r3, sp, #4
  514012:	4a0d      	ldr	r2, [pc, #52]	; (514048 <dump_hex+0x78>)
  514014:	4f0d      	ldr	r7, [pc, #52]	; (51404c <dump_hex+0x7c>)
  514016:	4608      	mov	r0, r1
  514018:	47b8      	blx	r7
  51401a:	e7e0      	b.n	513fde <dump_hex+0xe>
  51401c:	f817 3b01 	ldrb.w	r3, [r7], #1
  514020:	7086      	strb	r6, [r0, #2]
  514022:	0919      	lsrs	r1, r3, #4
  514024:	2909      	cmp	r1, #9
  514026:	f003 030f 	and.w	r3, r3, #15
  51402a:	bf94      	ite	ls
  51402c:	3130      	addls	r1, #48	; 0x30
  51402e:	3137      	addhi	r1, #55	; 0x37
  514030:	2b09      	cmp	r3, #9
  514032:	bf94      	ite	ls
  514034:	3330      	addls	r3, #48	; 0x30
  514036:	3337      	addhi	r3, #55	; 0x37
  514038:	7001      	strb	r1, [r0, #0]
  51403a:	7043      	strb	r3, [r0, #1]
  51403c:	3201      	adds	r2, #1
  51403e:	3003      	adds	r0, #3
  514040:	e7de      	b.n	514000 <dump_hex+0x30>
  514042:	bf00      	nop
  514044:	00006d41 	.word	0x00006d41
  514048:	00526090 	.word	0x00526090
  51404c:	000d3259 	.word	0x000d3259

00514050 <ota_fw_upgrade_verify>:
  514050:	e92d 43f0 	stmdb	sp!, {r4, r5, r6, r7, r8, r9, lr}
  514054:	4b1a      	ldr	r3, [pc, #104]	; (5140c0 <ota_fw_upgrade_verify+0x70>)
  514056:	689b      	ldr	r3, [r3, #8]
  514058:	b0a3      	sub	sp, #140	; 0x8c
  51405a:	b10b      	cbz	r3, 514060 <ota_fw_upgrade_verify+0x10>
  51405c:	2004      	movs	r0, #4
  51405e:	4798      	blx	r3
  514060:	4e18      	ldr	r6, [pc, #96]	; (5140c4 <ota_fw_upgrade_verify+0x74>)
  514062:	f8df 806c 	ldr.w	r8, [pc, #108]	; 5140d0 <ota_fw_upgrade_verify+0x80>
  514066:	f8df 906c 	ldr.w	r9, [pc, #108]	; 5140d4 <ota_fw_upgrade_verify+0x84>
  51406a:	f04f 35ff 	mov.w	r5, #4294967295
  51406e:	2000      	movs	r0, #0
  514070:	6934      	ldr	r4, [r6, #16]
  514072:	4284      	cmp	r4, r0
  514074:	d811      	bhi.n	51409a <ota_fw_upgrade_verify+0x4a>
  514076:	69f3      	ldr	r3, [r6, #28]
  514078:	9301      	str	r3, [sp, #4]
  51407a:	43ed      	mvns	r5, r5
  51407c:	6a33      	ldr	r3, [r6, #32]
  51407e:	9300      	str	r3, [sp, #0]
  514080:	2100      	movs	r1, #0
  514082:	462b      	mov	r3, r5
  514084:	4a10      	ldr	r2, [pc, #64]	; (5140c8 <ota_fw_upgrade_verify+0x78>)
  514086:	4c11      	ldr	r4, [pc, #68]	; (5140cc <ota_fw_upgrade_verify+0x7c>)
  514088:	4608      	mov	r0, r1
  51408a:	47a0      	blx	r4
  51408c:	69f0      	ldr	r0, [r6, #28]
  51408e:	1b43      	subs	r3, r0, r5
  514090:	4258      	negs	r0, r3
  514092:	4158      	adcs	r0, r3
  514094:	b023      	add	sp, #140	; 0x8c
  514096:	e8bd 83f0 	ldmia.w	sp!, {r4, r5, r6, r7, r8, r9, pc}
  51409a:	f100 0780 	add.w	r7, r0, #128	; 0x80
  51409e:	42a7      	cmp	r7, r4
  5140a0:	bf2c      	ite	cs
  5140a2:	1a24      	subcs	r4, r4, r0
  5140a4:	2480      	movcc	r4, #128	; 0x80
  5140a6:	1ce2      	adds	r2, r4, #3
  5140a8:	f022 0203 	bic.w	r2, r2, #3
  5140ac:	a902      	add	r1, sp, #8
  5140ae:	47c0      	blx	r8
  5140b0:	4628      	mov	r0, r5
  5140b2:	b2a2      	uxth	r2, r4
  5140b4:	a902      	add	r1, sp, #8
  5140b6:	47c8      	blx	r9
  5140b8:	4605      	mov	r5, r0
  5140ba:	4638      	mov	r0, r7
  5140bc:	e7d8      	b.n	514070 <ota_fw_upgrade_verify+0x20>
  5140be:	bf00      	nop
  5140c0:	00210050 	.word	0x00210050
  5140c4:	00210440 	.word	0x00210440
  5140c8:	00526094 	.word	0x00526094
  5140cc:	000d3259 	.word	0x000d3259
  5140d0:	00513c7d 	.word	0x00513c7d
  5140d4:	0003f211 	.word	0x0003f211

005140d8 <ota_sec_fw_upgrade_verify>:
  5140d8:	e92d 4ff0 	stmdb	sp!, {r4, r5, r6, r7, r8, r9, sl, fp, lr}
  5140dc:	4d39      	ldr	r5, [pc, #228]	; (5141c4 <ota_sec_fw_upgrade_verify+0xec>)
  5140de:	4b3a      	ldr	r3, [pc, #232]	; (5141c8 <ota_sec_fw_upgrade_verify+0xf0>)
  5140e0:	f8d5 9010 	ldr.w	r9, [r5, #16]
  5140e4:	4f39      	ldr	r7, [pc, #228]	; (5141cc <ota_sec_fw_upgrade_verify+0xf4>)
  5140e6:	f2ad 5d14 	subw	sp, sp, #1300	; 0x514
  5140ea:	2100      	movs	r1, #0
  5140ec:	a809      	add	r0, sp, #36	; 0x24
  5140ee:	4798      	blx	r3
  5140f0:	f1a9 0840 	sub.w	r8, r9, #64	; 0x40
  5140f4:	2400      	movs	r4, #0
  5140f6:	46ab      	mov	fp, r5
  5140f8:	4544      	cmp	r4, r8
  5140fa:	d344      	bcc.n	514186 <ota_sec_fw_upgrade_verify+0xae>
  5140fc:	4b34      	ldr	r3, [pc, #208]	; (5141d0 <ota_sec_fw_upgrade_verify+0xf8>)
  5140fe:	4c35      	ldr	r4, [pc, #212]	; (5141d4 <ota_sec_fw_upgrade_verify+0xfc>)
  514100:	4e35      	ldr	r6, [pc, #212]	; (5141d8 <ota_sec_fw_upgrade_verify+0x100>)
  514102:	f8df 80f8 	ldr.w	r8, [pc, #248]	; 5141fc <ota_sec_fw_upgrade_verify+0x124>
  514106:	a901      	add	r1, sp, #4
  514108:	a809      	add	r0, sp, #36	; 0x24
  51410a:	4798      	blx	r3
  51410c:	2100      	movs	r1, #0
  51410e:	4a33      	ldr	r2, [pc, #204]	; (5141dc <ota_sec_fw_upgrade_verify+0x104>)
  514110:	4608      	mov	r0, r1
  514112:	47a0      	blx	r4
  514114:	2120      	movs	r1, #32
  514116:	a801      	add	r0, sp, #4
  514118:	47b0      	blx	r6
  51411a:	2100      	movs	r1, #0
  51411c:	f8d8 3000 	ldr.w	r3, [r8]
  514120:	4a2f      	ldr	r2, [pc, #188]	; (5141e0 <ota_sec_fw_upgrade_verify+0x108>)
  514122:	4608      	mov	r0, r1
  514124:	47a0      	blx	r4
  514126:	2160      	movs	r1, #96	; 0x60
  514128:	f8d8 0000 	ldr.w	r0, [r8]
  51412c:	47b0      	blx	r6
  51412e:	f8db 5010 	ldr.w	r5, [fp, #16]
  514132:	3d40      	subs	r5, #64	; 0x40
  514134:	f025 0903 	bic.w	r9, r5, #3
  514138:	2244      	movs	r2, #68	; 0x44
  51413a:	a944      	add	r1, sp, #272	; 0x110
  51413c:	4648      	mov	r0, r9
  51413e:	47b8      	blx	r7
  514140:	2844      	cmp	r0, #68	; 0x44
  514142:	d004      	beq.n	51414e <ota_sec_fw_upgrade_verify+0x76>
  514144:	2100      	movs	r1, #0
  514146:	464b      	mov	r3, r9
  514148:	4a26      	ldr	r2, [pc, #152]	; (5141e4 <ota_sec_fw_upgrade_verify+0x10c>)
  51414a:	4608      	mov	r0, r1
  51414c:	47a0      	blx	r4
  51414e:	2100      	movs	r1, #0
  514150:	4a25      	ldr	r2, [pc, #148]	; (5141e8 <ota_sec_fw_upgrade_verify+0x110>)
  514152:	4608      	mov	r0, r1
  514154:	47a0      	blx	r4
  514156:	f005 0503 	and.w	r5, r5, #3
  51415a:	ab44      	add	r3, sp, #272	; 0x110
  51415c:	441d      	add	r5, r3
  51415e:	4628      	mov	r0, r5
  514160:	2140      	movs	r1, #64	; 0x40
  514162:	47b0      	blx	r6
  514164:	f8d8 2000 	ldr.w	r2, [r8]
  514168:	4b20      	ldr	r3, [pc, #128]	; (5141ec <ota_sec_fw_upgrade_verify+0x114>)
  51416a:	4629      	mov	r1, r5
  51416c:	a801      	add	r0, sp, #4
  51416e:	4798      	blx	r3
  514170:	2100      	movs	r1, #0
  514172:	b2c5      	uxtb	r5, r0
  514174:	462b      	mov	r3, r5
  514176:	4a1e      	ldr	r2, [pc, #120]	; (5141f0 <ota_sec_fw_upgrade_verify+0x118>)
  514178:	4608      	mov	r0, r1
  51417a:	47a0      	blx	r4
  51417c:	4628      	mov	r0, r5
  51417e:	f20d 5d14 	addw	sp, sp, #1300	; 0x514
  514182:	e8bd 8ff0 	ldmia.w	sp!, {r4, r5, r6, r7, r8, r9, sl, fp, pc}
  514186:	f504 6680 	add.w	r6, r4, #1024	; 0x400
  51418a:	4546      	cmp	r6, r8
  51418c:	bf26      	itte	cs
  51418e:	f509 7570 	addcs.w	r5, r9, #960	; 0x3c0
  514192:	1bad      	subcs	r5, r5, r6
  514194:	f44f 6580 	movcc.w	r5, #1024	; 0x400
  514198:	1ceb      	adds	r3, r5, #3
  51419a:	f023 0a03 	bic.w	sl, r3, #3
  51419e:	4652      	mov	r2, sl
  5141a0:	a944      	add	r1, sp, #272	; 0x110
  5141a2:	4620      	mov	r0, r4
  5141a4:	47b8      	blx	r7
  5141a6:	4582      	cmp	sl, r0
  5141a8:	d005      	beq.n	5141b6 <ota_sec_fw_upgrade_verify+0xde>
  5141aa:	2100      	movs	r1, #0
  5141ac:	4623      	mov	r3, r4
  5141ae:	4a11      	ldr	r2, [pc, #68]	; (5141f4 <ota_sec_fw_upgrade_verify+0x11c>)
  5141b0:	4c08      	ldr	r4, [pc, #32]	; (5141d4 <ota_sec_fw_upgrade_verify+0xfc>)
  5141b2:	4608      	mov	r0, r1
  5141b4:	47a0      	blx	r4
  5141b6:	462a      	mov	r2, r5
  5141b8:	a944      	add	r1, sp, #272	; 0x110
  5141ba:	a809      	add	r0, sp, #36	; 0x24
  5141bc:	4b0e      	ldr	r3, [pc, #56]	; (5141f8 <ota_sec_fw_upgrade_verify+0x120>)
  5141be:	4798      	blx	r3
  5141c0:	4634      	mov	r4, r6
  5141c2:	e799      	b.n	5140f8 <ota_sec_fw_upgrade_verify+0x20>
  5141c4:	00210440 	.word	0x00210440
  5141c8:	000e0f75 	.word	0x000e0f75
  5141cc:	00513c7d 	.word	0x00513c7d
  5141d0:	000e2c5d 	.word	0x000e2c5d
  5141d4:	000d3259 	.word	0x000d3259
  5141d8:	00513fd1 	.word	0x00513fd1
  5141dc:	005260e1 	.word	0x005260e1
  5141e0:	005260e8 	.word	0x005260e8
  5141e4:	005260f7 	.word	0x005260f7
  5141e8:	0052610f 	.word	0x0052610f
  5141ec:	00513739 	.word	0x00513739
  5141f0:	0052611b 	.word	0x0052611b
  5141f4:	005260c9 	.word	0x005260c9
  5141f8:	000e2beb 	.word	0x000e2beb
  5141fc:	00210060 	.word	0x00210060

00514200 <wiced_ota_fw_upgrade_write_handler>:
  514200:	e92d 4ff0 	stmdb	sp!, {r4, r5, r6, r7, r8, r9, sl, fp, lr}
  514204:	880b      	ldrh	r3, [r1, #0]
  514206:	f64f 7203 	movw	r2, #65283	; 0xff03
  51420a:	4293      	cmp	r3, r2
  51420c:	b087      	sub	sp, #28
  51420e:	4680      	mov	r8, r0
  514210:	f000 8196 	beq.w	514540 <wiced_ota_fw_upgrade_write_handler+0x340>
  514214:	f64f 7205 	movw	r2, #65285	; 0xff05
  514218:	4293      	cmp	r3, r2
  51421a:	f000 81a3 	beq.w	514564 <wiced_ota_fw_upgrade_write_handler+0x364>
  51421e:	f64f 7202 	movw	r2, #65282	; 0xff02
  514222:	4293      	cmp	r3, r2
  514224:	f040 823d 	bne.w	5146a2 <wiced_ota_fw_upgrade_write_handler+0x4a2>
  514228:	68cc      	ldr	r4, [r1, #12]
  51422a:	4ea5      	ldr	r6, [pc, #660]	; (5144c0 <wiced_ota_fw_upgrade_write_handler+0x2c0>)
  51422c:	f894 9000 	ldrb.w	r9, [r4]
  514230:	6833      	ldr	r3, [r6, #0]
  514232:	f8b1 b00a 	ldrh.w	fp, [r1, #10]
  514236:	4aa3      	ldr	r2, [pc, #652]	; (5144c4 <wiced_ota_fw_upgrade_write_handler+0x2c4>)
  514238:	9300      	str	r3, [sp, #0]
  51423a:	2500      	movs	r5, #0
  51423c:	464b      	mov	r3, r9
  51423e:	4629      	mov	r1, r5
  514240:	4628      	mov	r0, r5
  514242:	4fa1      	ldr	r7, [pc, #644]	; (5144c8 <wiced_ota_fw_upgrade_write_handler+0x2c8>)
  514244:	f88d 5017 	strb.w	r5, [sp, #23]
  514248:	47b8      	blx	r7
  51424a:	f1b9 0f01 	cmp.w	r9, #1
  51424e:	46b2      	mov	sl, r6
  514250:	d127      	bne.n	5142a2 <wiced_ota_fw_upgrade_write_handler+0xa2>
  514252:	f1bb 0f0b 	cmp.w	fp, #11
  514256:	d10b      	bne.n	514270 <wiced_ota_fw_upgrade_write_handler+0x70>
  514258:	7862      	ldrb	r2, [r4, #1]
  51425a:	78a3      	ldrb	r3, [r4, #2]
  51425c:	eb03 2302 	add.w	r3, r3, r2, lsl #8
  514260:	f8a6 3260 	strh.w	r3, [r6, #608]	; 0x260
  514264:	2208      	movs	r2, #8
  514266:	1ce1      	adds	r1, r4, #3
  514268:	f206 2062 	addw	r0, r6, #610	; 0x262
  51426c:	4b97      	ldr	r3, [pc, #604]	; (5144cc <wiced_ota_fw_upgrade_write_handler+0x2cc>)
  51426e:	4798      	blx	r3
  514270:	4d97      	ldr	r5, [pc, #604]	; (5144d0 <wiced_ota_fw_upgrade_write_handler+0x2d0>)
  514272:	4c98      	ldr	r4, [pc, #608]	; (5144d4 <wiced_ota_fw_upgrade_write_handler+0x2d4>)
  514274:	2206      	movs	r2, #6
  514276:	23c8      	movs	r3, #200	; 0xc8
  514278:	4611      	mov	r1, r2
  51427a:	9300      	str	r3, [sp, #0]
  51427c:	4628      	mov	r0, r5
  51427e:	2300      	movs	r3, #0
  514280:	47a0      	blx	r4
  514282:	4b95      	ldr	r3, [pc, #596]	; (5144d8 <wiced_ota_fw_upgrade_write_handler+0x2d8>)
  514284:	2401      	movs	r4, #1
  514286:	f10d 0117 	add.w	r1, sp, #23
  51428a:	4640      	mov	r0, r8
  51428c:	f845 4c04 	str.w	r4, [r5, #-4]
  514290:	4798      	blx	r3
  514292:	4b92      	ldr	r3, [pc, #584]	; (5144dc <wiced_ota_fw_upgrade_write_handler+0x2dc>)
  514294:	689b      	ldr	r3, [r3, #8]
  514296:	b90b      	cbnz	r3, 51429c <wiced_ota_fw_upgrade_write_handler+0x9c>
  514298:	2500      	movs	r5, #0
  51429a:	e07a      	b.n	514392 <wiced_ota_fw_upgrade_write_handler+0x192>
  51429c:	4620      	mov	r0, r4
  51429e:	4798      	blx	r3
  5142a0:	e7fa      	b.n	514298 <wiced_ota_fw_upgrade_write_handler+0x98>
  5142a2:	f1b9 0f07 	cmp.w	r9, #7
  5142a6:	d111      	bne.n	5142cc <wiced_ota_fw_upgrade_write_handler+0xcc>
  5142a8:	2305      	movs	r3, #5
  5142aa:	6033      	str	r3, [r6, #0]
  5142ac:	f10d 0117 	add.w	r1, sp, #23
  5142b0:	4b89      	ldr	r3, [pc, #548]	; (5144d8 <wiced_ota_fw_upgrade_write_handler+0x2d8>)
  5142b2:	4640      	mov	r0, r8
  5142b4:	4798      	blx	r3
  5142b6:	4b89      	ldr	r3, [pc, #548]	; (5144dc <wiced_ota_fw_upgrade_write_handler+0x2dc>)
  5142b8:	689b      	ldr	r3, [r3, #8]
  5142ba:	b10b      	cbz	r3, 5142c0 <wiced_ota_fw_upgrade_write_handler+0xc0>
  5142bc:	2002      	movs	r0, #2
  5142be:	4798      	blx	r3
  5142c0:	2100      	movs	r1, #0
  5142c2:	4a87      	ldr	r2, [pc, #540]	; (5144e0 <wiced_ota_fw_upgrade_write_handler+0x2e0>)
  5142c4:	4608      	mov	r0, r1
  5142c6:	47b8      	blx	r7
  5142c8:	2585      	movs	r5, #133	; 0x85
  5142ca:	e062      	b.n	514392 <wiced_ota_fw_upgrade_write_handler+0x192>
  5142cc:	6833      	ldr	r3, [r6, #0]
  5142ce:	2b01      	cmp	r3, #1
  5142d0:	d011      	beq.n	5142f6 <wiced_ota_fw_upgrade_write_handler+0xf6>
  5142d2:	2b02      	cmp	r3, #2
  5142d4:	d061      	beq.n	51439a <wiced_ota_fw_upgrade_write_handler+0x19a>
  5142d6:	2b00      	cmp	r3, #0
  5142d8:	d0de      	beq.n	514298 <wiced_ota_fw_upgrade_write_handler+0x98>
  5142da:	ac06      	add	r4, sp, #24
  5142dc:	2302      	movs	r3, #2
  5142de:	f804 3d01 	strb.w	r3, [r4, #-1]!
  5142e2:	2100      	movs	r1, #0
  5142e4:	4a7f      	ldr	r2, [pc, #508]	; (5144e4 <wiced_ota_fw_upgrade_write_handler+0x2e4>)
  5142e6:	4608      	mov	r0, r1
  5142e8:	47b8      	blx	r7
  5142ea:	4621      	mov	r1, r4
  5142ec:	4640      	mov	r0, r8
  5142ee:	4b7a      	ldr	r3, [pc, #488]	; (5144d8 <wiced_ota_fw_upgrade_write_handler+0x2d8>)
  5142f0:	4798      	blx	r3
  5142f2:	4a7d      	ldr	r2, [pc, #500]	; (5144e8 <wiced_ota_fw_upgrade_write_handler+0x2e8>)
  5142f4:	e0af      	b.n	514456 <wiced_ota_fw_upgrade_write_handler+0x256>
  5142f6:	f1b9 0f02 	cmp.w	r9, #2
  5142fa:	d1ee      	bne.n	5142da <wiced_ota_fw_upgrade_write_handler+0xda>
  5142fc:	f1bb 0f04 	cmp.w	fp, #4
  514300:	dc05      	bgt.n	51430e <wiced_ota_fw_upgrade_write_handler+0x10e>
  514302:	4a7a      	ldr	r2, [pc, #488]	; (5144ec <wiced_ota_fw_upgrade_write_handler+0x2ec>)
  514304:	465b      	mov	r3, fp
  514306:	4629      	mov	r1, r5
  514308:	4628      	mov	r0, r5
  51430a:	47b8      	blx	r7
  51430c:	e7d8      	b.n	5142c0 <wiced_ota_fw_upgrade_write_handler+0xc0>
  51430e:	4629      	mov	r1, r5
  514310:	4a77      	ldr	r2, [pc, #476]	; (5144f0 <wiced_ota_fw_upgrade_write_handler+0x2f0>)
  514312:	f8df a1c4 	ldr.w	sl, [pc, #452]	; 5144d8 <wiced_ota_fw_upgrade_write_handler+0x2d8>
  514316:	4628      	mov	r0, r5
  514318:	47b8      	blx	r7
  51431a:	4b76      	ldr	r3, [pc, #472]	; (5144f4 <wiced_ota_fw_upgrade_write_handler+0x2f4>)
  51431c:	4798      	blx	r3
  51431e:	4601      	mov	r1, r0
  514320:	b948      	cbnz	r0, 514336 <wiced_ota_fw_upgrade_write_handler+0x136>
  514322:	4a75      	ldr	r2, [pc, #468]	; (5144f8 <wiced_ota_fw_upgrade_write_handler+0x2f8>)
  514324:	47b8      	blx	r7
  514326:	2304      	movs	r3, #4
  514328:	f10d 0117 	add.w	r1, sp, #23
  51432c:	4640      	mov	r0, r8
  51432e:	f88d 3017 	strb.w	r3, [sp, #23]
  514332:	47d0      	blx	sl
  514334:	e7c4      	b.n	5142c0 <wiced_ota_fw_upgrade_write_handler+0xc0>
  514336:	4a71      	ldr	r2, [pc, #452]	; (5144fc <wiced_ota_fw_upgrade_write_handler+0x2fc>)
  514338:	4f63      	ldr	r7, [pc, #396]	; (5144c8 <wiced_ota_fw_upgrade_write_handler+0x2c8>)
  51433a:	4629      	mov	r1, r5
  51433c:	4628      	mov	r0, r5
  51433e:	47b8      	blx	r7
  514340:	e9c6 5505 	strd	r5, r5, [r6, #20]
  514344:	81f5      	strh	r5, [r6, #14]
  514346:	f8c6 9000 	str.w	r9, [r6]
  51434a:	78a2      	ldrb	r2, [r4, #2]
  51434c:	7863      	ldrb	r3, [r4, #1]
  51434e:	eb03 2302 	add.w	r3, r3, r2, lsl #8
  514352:	78e2      	ldrb	r2, [r4, #3]
  514354:	eb03 4302 	add.w	r3, r3, r2, lsl #16
  514358:	7922      	ldrb	r2, [r4, #4]
  51435a:	f8c6 526c 	str.w	r5, [r6, #620]	; 0x26c
  51435e:	eb03 6302 	add.w	r3, r3, r2, lsl #24
  514362:	6133      	str	r3, [r6, #16]
  514364:	f04f 33ff 	mov.w	r3, #4294967295
  514368:	6233      	str	r3, [r6, #32]
  51436a:	78a2      	ldrb	r2, [r4, #2]
  51436c:	7863      	ldrb	r3, [r4, #1]
  51436e:	eb03 2302 	add.w	r3, r3, r2, lsl #8
  514372:	78e2      	ldrb	r2, [r4, #3]
  514374:	eb03 4302 	add.w	r3, r3, r2, lsl #16
  514378:	7922      	ldrb	r2, [r4, #4]
  51437a:	eb03 6302 	add.w	r3, r3, r2, lsl #24
  51437e:	9300      	str	r3, [sp, #0]
  514380:	4629      	mov	r1, r5
  514382:	464b      	mov	r3, r9
  514384:	4a5e      	ldr	r2, [pc, #376]	; (514500 <wiced_ota_fw_upgrade_write_handler+0x300>)
  514386:	4628      	mov	r0, r5
  514388:	47b8      	blx	r7
  51438a:	f10d 0117 	add.w	r1, sp, #23
  51438e:	4640      	mov	r0, r8
  514390:	47d0      	blx	sl
  514392:	4628      	mov	r0, r5
  514394:	b007      	add	sp, #28
  514396:	e8bd 8ff0 	ldmia.w	sp!, {r4, r5, r6, r7, r8, r9, sl, fp, pc}
  51439a:	f1b9 0f03 	cmp.w	r9, #3
  51439e:	d19c      	bne.n	5142da <wiced_ota_fw_upgrade_write_handler+0xda>
  5143a0:	f1bb 0f04 	cmp.w	fp, #4
  5143a4:	dc02      	bgt.n	5143ac <wiced_ota_fw_upgrade_write_handler+0x1ac>
  5143a6:	465b      	mov	r3, fp
  5143a8:	4a56      	ldr	r2, [pc, #344]	; (514504 <wiced_ota_fw_upgrade_write_handler+0x304>)
  5143aa:	e7ac      	b.n	514306 <wiced_ota_fw_upgrade_write_handler+0x106>
  5143ac:	6932      	ldr	r2, [r6, #16]
  5143ae:	69b3      	ldr	r3, [r6, #24]
  5143b0:	4e4a      	ldr	r6, [pc, #296]	; (5144dc <wiced_ota_fw_upgrade_write_handler+0x2dc>)
  5143b2:	429a      	cmp	r2, r3
  5143b4:	d014      	beq.n	5143e0 <wiced_ota_fw_upgrade_write_handler+0x1e0>
  5143b6:	2100      	movs	r1, #0
  5143b8:	9200      	str	r2, [sp, #0]
  5143ba:	4608      	mov	r0, r1
  5143bc:	4a52      	ldr	r2, [pc, #328]	; (514508 <wiced_ota_fw_upgrade_write_handler+0x308>)
  5143be:	47b8      	blx	r7
  5143c0:	2305      	movs	r3, #5
  5143c2:	a906      	add	r1, sp, #24
  5143c4:	f8ca 3000 	str.w	r3, [sl]
  5143c8:	2303      	movs	r3, #3
  5143ca:	f801 3d01 	strb.w	r3, [r1, #-1]!
  5143ce:	4640      	mov	r0, r8
  5143d0:	4b41      	ldr	r3, [pc, #260]	; (5144d8 <wiced_ota_fw_upgrade_write_handler+0x2d8>)
  5143d2:	4798      	blx	r3
  5143d4:	68b3      	ldr	r3, [r6, #8]
  5143d6:	2b00      	cmp	r3, #0
  5143d8:	f43f af5e 	beq.w	514298 <wiced_ota_fw_upgrade_write_handler+0x98>
  5143dc:	2002      	movs	r0, #2
  5143de:	e75e      	b.n	51429e <wiced_ota_fw_upgrade_write_handler+0x9e>
  5143e0:	4b4a      	ldr	r3, [pc, #296]	; (51450c <wiced_ota_fw_upgrade_write_handler+0x30c>)
  5143e2:	681b      	ldr	r3, [r3, #0]
  5143e4:	bb1b      	cbnz	r3, 51442e <wiced_ota_fw_upgrade_write_handler+0x22e>
  5143e6:	78a2      	ldrb	r2, [r4, #2]
  5143e8:	7863      	ldrb	r3, [r4, #1]
  5143ea:	eb03 2302 	add.w	r3, r3, r2, lsl #8
  5143ee:	78e2      	ldrb	r2, [r4, #3]
  5143f0:	eb03 4302 	add.w	r3, r3, r2, lsl #16
  5143f4:	7922      	ldrb	r2, [r4, #4]
  5143f6:	eb03 6302 	add.w	r3, r3, r2, lsl #24
  5143fa:	f8ca 301c 	str.w	r3, [sl, #28]
  5143fe:	4b44      	ldr	r3, [pc, #272]	; (514510 <wiced_ota_fw_upgrade_write_handler+0x310>)
  514400:	4798      	blx	r3
  514402:	4605      	mov	r5, r0
  514404:	b9c8      	cbnz	r0, 51443a <wiced_ota_fw_upgrade_write_handler+0x23a>
  514406:	4a43      	ldr	r2, [pc, #268]	; (514514 <wiced_ota_fw_upgrade_write_handler+0x314>)
  514408:	4601      	mov	r1, r0
  51440a:	47b8      	blx	r7
  51440c:	2305      	movs	r3, #5
  51440e:	a906      	add	r1, sp, #24
  514410:	f8ca 3000 	str.w	r3, [sl]
  514414:	2303      	movs	r3, #3
  514416:	f801 3d01 	strb.w	r3, [r1, #-1]!
  51441a:	4640      	mov	r0, r8
  51441c:	4b2e      	ldr	r3, [pc, #184]	; (5144d8 <wiced_ota_fw_upgrade_write_handler+0x2d8>)
  51441e:	4798      	blx	r3
  514420:	68b3      	ldr	r3, [r6, #8]
  514422:	2b00      	cmp	r3, #0
  514424:	f43f af38 	beq.w	514298 <wiced_ota_fw_upgrade_write_handler+0x98>
  514428:	2002      	movs	r0, #2
  51442a:	4798      	blx	r3
  51442c:	e7b1      	b.n	514392 <wiced_ota_fw_upgrade_write_handler+0x192>
  51442e:	2100      	movs	r1, #0
  514430:	4a39      	ldr	r2, [pc, #228]	; (514518 <wiced_ota_fw_upgrade_write_handler+0x318>)
  514432:	4608      	mov	r0, r1
  514434:	47b8      	blx	r7
  514436:	4b39      	ldr	r3, [pc, #228]	; (51451c <wiced_ota_fw_upgrade_write_handler+0x31c>)
  514438:	e7e2      	b.n	514400 <wiced_ota_fw_upgrade_write_handler+0x200>
  51443a:	2100      	movs	r1, #0
  51443c:	4a38      	ldr	r2, [pc, #224]	; (514520 <wiced_ota_fw_upgrade_write_handler+0x320>)
  51443e:	4608      	mov	r0, r1
  514440:	47b8      	blx	r7
  514442:	2303      	movs	r3, #3
  514444:	f8ca 3000 	str.w	r3, [sl]
  514448:	8873      	ldrh	r3, [r6, #2]
  51444a:	079a      	lsls	r2, r3, #30
  51444c:	d407      	bmi.n	51445e <wiced_ota_fw_upgrade_write_handler+0x25e>
  51444e:	8873      	ldrh	r3, [r6, #2]
  514450:	07db      	lsls	r3, r3, #31
  514452:	d419      	bmi.n	514488 <wiced_ota_fw_upgrade_write_handler+0x288>
  514454:	4a33      	ldr	r2, [pc, #204]	; (514524 <wiced_ota_fw_upgrade_write_handler+0x324>)
  514456:	2100      	movs	r1, #0
  514458:	4608      	mov	r0, r1
  51445a:	47b8      	blx	r7
  51445c:	e730      	b.n	5142c0 <wiced_ota_fw_upgrade_write_handler+0xc0>
  51445e:	6874      	ldr	r4, [r6, #4]
  514460:	f10d 0317 	add.w	r3, sp, #23
  514464:	b14c      	cbz	r4, 51447a <wiced_ota_fw_upgrade_write_handler+0x27a>
  514466:	9300      	str	r3, [sp, #0]
  514468:	f64f 7202 	movw	r2, #65282	; 0xff02
  51446c:	2301      	movs	r3, #1
  51446e:	4641      	mov	r1, r8
  514470:	2000      	movs	r0, #0
  514472:	47a0      	blx	r4
  514474:	2800      	cmp	r0, #0
  514476:	d1ea      	bne.n	51444e <wiced_ota_fw_upgrade_write_handler+0x24e>
  514478:	e70e      	b.n	514298 <wiced_ota_fw_upgrade_write_handler+0x98>
  51447a:	2201      	movs	r2, #1
  51447c:	f64f 7102 	movw	r1, #65282	; 0xff02
  514480:	4640      	mov	r0, r8
  514482:	4c29      	ldr	r4, [pc, #164]	; (514528 <wiced_ota_fw_upgrade_write_handler+0x328>)
  514484:	47a0      	blx	r4
  514486:	e7f5      	b.n	514474 <wiced_ota_fw_upgrade_write_handler+0x274>
  514488:	f10d 0117 	add.w	r1, sp, #23
  51448c:	4640      	mov	r0, r8
  51448e:	4b12      	ldr	r3, [pc, #72]	; (5144d8 <wiced_ota_fw_upgrade_write_handler+0x2d8>)
  514490:	4798      	blx	r3
  514492:	4605      	mov	r5, r0
  514494:	2800      	cmp	r0, #0
  514496:	d1dd      	bne.n	514454 <wiced_ota_fw_upgrade_write_handler+0x254>
  514498:	68b3      	ldr	r3, [r6, #8]
  51449a:	b10b      	cbz	r3, 5144a0 <wiced_ota_fw_upgrade_write_handler+0x2a0>
  51449c:	2003      	movs	r0, #3
  51449e:	4798      	blx	r3
  5144a0:	4b22      	ldr	r3, [pc, #136]	; (51452c <wiced_ota_fw_upgrade_write_handler+0x32c>)
  5144a2:	4823      	ldr	r0, [pc, #140]	; (514530 <wiced_ota_fw_upgrade_write_handler+0x330>)
  5144a4:	f8a6 8000 	strh.w	r8, [r6]
  5144a8:	4c22      	ldr	r4, [pc, #136]	; (514534 <wiced_ota_fw_upgrade_write_handler+0x334>)
  5144aa:	4798      	blx	r3
  5144ac:	2301      	movs	r3, #1
  5144ae:	4642      	mov	r2, r8
  5144b0:	4921      	ldr	r1, [pc, #132]	; (514538 <wiced_ota_fw_upgrade_write_handler+0x338>)
  5144b2:	481f      	ldr	r0, [pc, #124]	; (514530 <wiced_ota_fw_upgrade_write_handler+0x330>)
  5144b4:	47a0      	blx	r4
  5144b6:	2101      	movs	r1, #1
  5144b8:	4b20      	ldr	r3, [pc, #128]	; (51453c <wiced_ota_fw_upgrade_write_handler+0x33c>)
  5144ba:	481d      	ldr	r0, [pc, #116]	; (514530 <wiced_ota_fw_upgrade_write_handler+0x330>)
  5144bc:	4798      	blx	r3
  5144be:	e768      	b.n	514392 <wiced_ota_fw_upgrade_write_handler+0x192>
  5144c0:	00210440 	.word	0x00210440
  5144c4:	0052612c 	.word	0x0052612c
  5144c8:	000d3259 	.word	0x000d3259
  5144cc:	00006d31 	.word	0x00006d31
  5144d0:	00210444 	.word	0x00210444
  5144d4:	000d2ce1 	.word	0x000d2ce1
  5144d8:	00513e49 	.word	0x00513e49
  5144dc:	00210050 	.word	0x00210050
  5144e0:	005262b2 	.word	0x005262b2
  5144e4:	00526258 	.word	0x00526258
  5144e8:	0052628e 	.word	0x0052628e
  5144ec:	00526148 	.word	0x00526148
  5144f0:	0052617e 	.word	0x0052617e
  5144f4:	005139e9 	.word	0x005139e9
  5144f8:	0052615f 	.word	0x0052615f
  5144fc:	00526179 	.word	0x00526179
  514500:	005261b0 	.word	0x005261b0
  514504:	005261c8 	.word	0x005261c8
  514508:	005261dc 	.word	0x005261dc
  51450c:	00210060 	.word	0x00210060
  514510:	00514051 	.word	0x00514051
  514514:	0052621f 	.word	0x0052621f
  514518:	00526201 	.word	0x00526201
  51451c:	005140d9 	.word	0x005140d9
  514520:	0052622e 	.word	0x0052622e
  514524:	0052623e 	.word	0x0052623e
  514528:	000d2981 	.word	0x000d2981
  51452c:	000064d9 	.word	0x000064d9
  514530:	00210468 	.word	0x00210468
  514534:	00006451 	.word	0x00006451
  514538:	00513df1 	.word	0x00513df1
  51453c:	0000647b 	.word	0x0000647b
  514540:	894b      	ldrh	r3, [r1, #10]
  514542:	2b02      	cmp	r3, #2
  514544:	d006      	beq.n	514554 <wiced_ota_fw_upgrade_write_handler+0x354>
  514546:	2100      	movs	r1, #0
  514548:	4a57      	ldr	r2, [pc, #348]	; (5146a8 <wiced_ota_fw_upgrade_write_handler+0x4a8>)
  51454a:	4c58      	ldr	r4, [pc, #352]	; (5146ac <wiced_ota_fw_upgrade_write_handler+0x4ac>)
  51454c:	4608      	mov	r0, r1
  51454e:	47a0      	blx	r4
  514550:	250d      	movs	r5, #13
  514552:	e71e      	b.n	514392 <wiced_ota_fw_upgrade_write_handler+0x192>
  514554:	68ca      	ldr	r2, [r1, #12]
  514556:	7851      	ldrb	r1, [r2, #1]
  514558:	7813      	ldrb	r3, [r2, #0]
  51455a:	4a55      	ldr	r2, [pc, #340]	; (5146b0 <wiced_ota_fw_upgrade_write_handler+0x4b0>)
  51455c:	eb03 2301 	add.w	r3, r3, r1, lsl #8
  514560:	8053      	strh	r3, [r2, #2]
  514562:	e699      	b.n	514298 <wiced_ota_fw_upgrade_write_handler+0x98>
  514564:	f8df 8174 	ldr.w	r8, [pc, #372]	; 5146dc <wiced_ota_fw_upgrade_write_handler+0x4dc>
  514568:	4f50      	ldr	r7, [pc, #320]	; (5146ac <wiced_ota_fw_upgrade_write_handler+0x4ac>)
  51456a:	f8d8 3000 	ldr.w	r3, [r8]
  51456e:	2b02      	cmp	r3, #2
  514570:	4644      	mov	r4, r8
  514572:	d119      	bne.n	5145a8 <wiced_ota_fw_upgrade_write_handler+0x3a8>
  514574:	68ce      	ldr	r6, [r1, #12]
  514576:	894d      	ldrh	r5, [r1, #10]
  514578:	4a4e      	ldr	r2, [pc, #312]	; (5146b4 <wiced_ota_fw_upgrade_write_handler+0x4b4>)
  51457a:	2100      	movs	r1, #0
  51457c:	4608      	mov	r0, r1
  51457e:	47b8      	blx	r7
  514580:	4b4d      	ldr	r3, [pc, #308]	; (5146b8 <wiced_ota_fw_upgrade_write_handler+0x4b8>)
  514582:	681b      	ldr	r3, [r3, #0]
  514584:	2b00      	cmp	r3, #0
  514586:	d052      	beq.n	51462e <wiced_ota_fw_upgrade_write_handler+0x42e>
  514588:	f8d8 8010 	ldr.w	r8, [r8, #16]
  51458c:	f1b8 0f00 	cmp.w	r8, #0
  514590:	d12e      	bne.n	5145f0 <wiced_ota_fw_upgrade_write_handler+0x3f0>
  514592:	494a      	ldr	r1, [pc, #296]	; (5146bc <wiced_ota_fw_upgrade_write_handler+0x4bc>)
  514594:	4b4a      	ldr	r3, [pc, #296]	; (5146c0 <wiced_ota_fw_upgrade_write_handler+0x4c0>)
  514596:	2208      	movs	r2, #8
  514598:	4630      	mov	r0, r6
  51459a:	4798      	blx	r3
  51459c:	4601      	mov	r1, r0
  51459e:	b148      	cbz	r0, 5145b4 <wiced_ota_fw_upgrade_write_handler+0x3b4>
  5145a0:	4a48      	ldr	r2, [pc, #288]	; (5146c4 <wiced_ota_fw_upgrade_write_handler+0x4c4>)
  5145a2:	4641      	mov	r1, r8
  5145a4:	4640      	mov	r0, r8
  5145a6:	47b8      	blx	r7
  5145a8:	2100      	movs	r1, #0
  5145aa:	4a47      	ldr	r2, [pc, #284]	; (5146c8 <wiced_ota_fw_upgrade_write_handler+0x4c8>)
  5145ac:	4608      	mov	r0, r1
  5145ae:	47b8      	blx	r7
  5145b0:	2581      	movs	r5, #129	; 0x81
  5145b2:	e6ee      	b.n	514392 <wiced_ota_fw_upgrade_write_handler+0x192>
  5145b4:	7a72      	ldrb	r2, [r6, #9]
  5145b6:	7a33      	ldrb	r3, [r6, #8]
  5145b8:	f896 800d 	ldrb.w	r8, [r6, #13]
  5145bc:	f896 e00b 	ldrb.w	lr, [r6, #11]
  5145c0:	f896 c00a 	ldrb.w	ip, [r6, #10]
  5145c4:	eb03 2302 	add.w	r3, r3, r2, lsl #8
  5145c8:	7b32      	ldrb	r2, [r6, #12]
  5145ca:	eb02 2208 	add.w	r2, r2, r8, lsl #8
  5145ce:	f896 800e 	ldrb.w	r8, [r6, #14]
  5145d2:	eb02 4208 	add.w	r2, r2, r8, lsl #16
  5145d6:	f896 800f 	ldrb.w	r8, [r6, #15]
  5145da:	eb02 6208 	add.w	r2, r2, r8, lsl #24
  5145de:	3250      	adds	r2, #80	; 0x50
  5145e0:	6122      	str	r2, [r4, #16]
  5145e2:	b29b      	uxth	r3, r3
  5145e4:	e9cd e201 	strd	lr, r2, [sp, #4]
  5145e8:	f8cd c000 	str.w	ip, [sp]
  5145ec:	4a37      	ldr	r2, [pc, #220]	; (5146cc <wiced_ota_fw_upgrade_write_handler+0x4cc>)
  5145ee:	47b8      	blx	r7
  5145f0:	f8df 90ec 	ldr.w	r9, [pc, #236]	; 5146e0 <wiced_ota_fw_upgrade_write_handler+0x4e0>
  5145f4:	f8df a0ec 	ldr.w	sl, [pc, #236]	; 5146e4 <wiced_ota_fw_upgrade_write_handler+0x4e4>
  5145f8:	f8df b0ec 	ldr.w	fp, [pc, #236]	; 5146e8 <wiced_ota_fw_upgrade_write_handler+0x4e8>
  5145fc:	2d00      	cmp	r5, #0
